******************************************************************************
                  MSP430 Linker PC v4.4.5                      
******************************************************************************
>> Linked Tue Jan 19 11:36:15 2021

OUTPUT FILE NAME:   <RT_FinProj_Part1_MontanoHadad.out>
ENTRY POINT SYMBOL: "_c_int00_noargs_noexit"  address: 00004400


MEMORY CONFIGURATION

         name            origin    length      used     unused   attr    fill
----------------------  --------  ---------  --------  --------  ----  --------
  SFR                   00000000   00000010  00000000  00000010  RWIX
  PERIPHERALS_8BIT      00000010   000000f0  00000000  000000f0  RWIX
  PERIPHERALS_16BIT     00000100   00000100  00000000  00000100  RWIX
  INFOD                 00001800   00000080  00000000  00000080  RWIX
  INFOC                 00001880   00000080  00000000  00000080  RWIX
  INFOB                 00001900   00000080  00000000  00000080  RWIX
  INFOA                 00001980   00000080  00000000  00000080  RWIX
  USBRAM                00001c00   00000800  00000000  00000800  RWIX
  RAM                   00002400   00002000  00001ad8  00000528  RWIX
  FLASH                 00004400   0000bb80  00000070  0000bb10  RWIX
  INT00                 0000ff80   00000002  00000000  00000002  RWIX
  INT01                 0000ff82   00000002  00000000  00000002  RWIX
  INT02                 0000ff84   00000002  00000000  00000002  RWIX
  INT03                 0000ff86   00000002  00000000  00000002  RWIX
  INT04                 0000ff88   00000002  00000000  00000002  RWIX
  INT05                 0000ff8a   00000002  00000000  00000002  RWIX
  INT06                 0000ff8c   00000002  00000000  00000002  RWIX
  INT07                 0000ff8e   00000002  00000000  00000002  RWIX
  INT08                 0000ff90   00000002  00000000  00000002  RWIX
  INT09                 0000ff92   00000002  00000000  00000002  RWIX
  INT10                 0000ff94   00000002  00000000  00000002  RWIX
  INT11                 0000ff96   00000002  00000000  00000002  RWIX
  INT12                 0000ff98   00000002  00000000  00000002  RWIX
  INT13                 0000ff9a   00000002  00000000  00000002  RWIX
  INT14                 0000ff9c   00000002  00000000  00000002  RWIX
  INT15                 0000ff9e   00000002  00000000  00000002  RWIX
  INT16                 0000ffa0   00000002  00000000  00000002  RWIX
  INT17                 0000ffa2   00000002  00000000  00000002  RWIX
  INT18                 0000ffa4   00000002  00000000  00000002  RWIX
  INT19                 0000ffa6   00000002  00000000  00000002  RWIX
  INT20                 0000ffa8   00000002  00000000  00000002  RWIX
  INT21                 0000ffaa   00000002  00000000  00000002  RWIX
  INT22                 0000ffac   00000002  00000000  00000002  RWIX
  INT23                 0000ffae   00000002  00000000  00000002  RWIX
  INT24                 0000ffb0   00000002  00000000  00000002  RWIX
  INT25                 0000ffb2   00000002  00000000  00000002  RWIX
  INT26                 0000ffb4   00000002  00000000  00000002  RWIX
  INT27                 0000ffb6   00000002  00000000  00000002  RWIX
  INT28                 0000ffb8   00000002  00000000  00000002  RWIX
  INT29                 0000ffba   00000002  00000000  00000002  RWIX
  INT30                 0000ffbc   00000002  00000000  00000002  RWIX
  INT31                 0000ffbe   00000002  00000000  00000002  RWIX
  INT32                 0000ffc0   00000002  00000000  00000002  RWIX
  INT33                 0000ffc2   00000002  00000000  00000002  RWIX
  INT34                 0000ffc4   00000002  00000000  00000002  RWIX
  INT35                 0000ffc6   00000002  00000000  00000002  RWIX
  INT36                 0000ffc8   00000002  00000000  00000002  RWIX
  INT37                 0000ffca   00000002  00000000  00000002  RWIX
  INT38                 0000ffcc   00000002  00000000  00000002  RWIX
  INT39                 0000ffce   00000002  00000000  00000002  RWIX
  INT40                 0000ffd0   00000002  00000000  00000002  RWIX
  INT41                 0000ffd2   00000002  00000002  00000000  RWIX
  INT42                 0000ffd4   00000002  00000002  00000000  RWIX
  INT43                 0000ffd6   00000002  00000002  00000000  RWIX
  INT44                 0000ffd8   00000002  00000002  00000000  RWIX
  INT45                 0000ffda   00000002  00000002  00000000  RWIX
  INT46                 0000ffdc   00000002  00000002  00000000  RWIX
  INT47                 0000ffde   00000002  00000002  00000000  RWIX
  INT48                 0000ffe0   00000002  00000002  00000000  RWIX
  INT49                 0000ffe2   00000002  00000002  00000000  RWIX
  INT50                 0000ffe4   00000002  00000002  00000000  RWIX
  INT51                 0000ffe6   00000002  00000002  00000000  RWIX
  INT52                 0000ffe8   00000002  00000002  00000000  RWIX
  INT53                 0000ffea   00000002  00000002  00000000  RWIX
  INT54                 0000ffec   00000002  00000002  00000000  RWIX
  INT55                 0000ffee   00000002  00000002  00000000  RWIX
  INT56                 0000fff0   00000002  00000002  00000000  RWIX
  INT57                 0000fff2   00000002  00000002  00000000  RWIX
  INT58                 0000fff4   00000002  00000002  00000000  RWIX
  INT59                 0000fff6   00000002  00000002  00000000  RWIX
  INT60                 0000fff8   00000002  00000002  00000000  RWIX
  INT61                 0000fffa   00000002  00000002  00000000  RWIX
  INT62                 0000fffc   00000002  00000002  00000000  RWIX
  RESET                 0000fffe   00000002  00000002  00000000  RWIX
  FLASH2                00010000   00014400  00008fea  0000b416  RWIX


SECTION ALLOCATION MAP

 output                                  attributes/
section   page    origin      length       input sections
--------  ----  ----------  ----------   ----------------
.bss       0    00002400    00001024     UNINITIALIZED
                  00002400    00000c00     empty_pe430X.oe430X (.bss:taskStackSection)
                  00003000    00000100     (.common:ti_uia_loggers_LoggerStopMode_Instance_State_1_packetArray__A)
                  00003100    00000100     (.common:ti_uia_loggers_LoggerStopMode_Instance_State_2_packetArray__A)
                  00003200    00000080     (.common:ti_uia_loggers_LoggerStopMode_Instance_State_0_packetArray__A)
                  00003280    00000080     (.common:xdc_runtime_SysMin_Module_State_0_outbuf__A)
                  00003300    00000024     (.common:ti_uia_loggers_LoggerStopMode_Instance_State_0_hdr__A)
                  00003324    00000014     (.common:buffer)
                  00003338    00000008     (.common:parmbuf)
                  00003340    00000040     --HOLE--
                  00003380    00000024     (.common:ti_uia_loggers_LoggerStopMode_Instance_State_1_hdr__A)
                  000033a4    0000005c     --HOLE--
                  00003400    00000024     (.common:ti_uia_loggers_LoggerStopMode_Instance_State_2_hdr__A)

.data      0    00003424    00000694     UNINITIALIZED
                  00003424    000001fc     empty_pe430X.oe430X (.data)
                  00003620    00000174     empty_pe430X.oe430X (.data:ti_sysbios_knl_Task_Object__table__V)
                  00003794    0000008a     empty_pe430X.oe430X (.data:ti_uia_loggers_LoggerStopMode_Object__table__V)
                  0000381e    00000080     empty_pe430X.oe430X (.data:ti_sysbios_knl_Swi_Module_State_0_readyQ__A)
                  0000389e    00000080     empty_pe430X.oe430X (.data:ti_sysbios_knl_Task_Module_State_0_readyQ__A)
                  0000391e    0000005a     empty_pe430X.oe430X (.data:ti_sysbios_knl_Semaphore_Object__table__V)
                  00003978    00000036     empty_pe430X.oe430X (.data:ti_sysbios_family_msp430_Timer_Object__table__V)
                  000039ae    00000034     empty_pe430X.oe430X (.data:ti_sysbios_gates_GateMutex_Object__table__V)
                  000039e2    00000026     empty_pe430X.oe430X (.data:ti_sysbios_knl_Swi_Object__table__V)
                  00003a08    00000020     empty_pe430X.oe430X (.data:xdc_runtime_System_Module_State_0_atexitHandlers__A)
                  00003a28    0000001e     empty_pe430X.oe430X (.data:ti_sysbios_knl_Clock_Object__table__V)
                  00003a46    00000018     empty_pe430X.oe430X (.data:ti_sysbios_family_msp430_Timer_Module_State_0_device__A)
                  00003a5e    00000010     empty_pe430X.oe430X (.data:ti_sysbios_family_msp430_Timer_Module_State_0_handles__A)
                  00003a6e    0000000e     empty_pe430X.oe430X (.data:ti_sysbios_family_msp430_Hwi_Object__table__V)
                  00003a7c    0000000c     empty_pe430X.oe430X (.data:xdc_runtime_HeapStd_Object__table__V)
                  00003a88    00000006     main.obj (.data)
                  00003a8e    00000006     ti.uia.runtime.ae430X : QueueDescriptor.oe430X (.data)
                  00003a94    00000004     boot.ae430X : boot.oe430X (.data:__TI_cleanup_ptr)
                  00003a98    00000004                 : boot.oe430X (.data:__TI_dtors_ptr)
                  00003a9c    00000004     rts430x_lc_rd_eabi.lib : _lock.obj (.data:_lock)
                  00003aa0    00000004                            : _lock.obj (.data:_unlock)
                  00003aa4    00000004                            : rand.obj (.data)
                  00003aa8    00000004     empty_pe430X.oe430X (.data:ti_sysbios_gates_GateHwi_Object__table__V)
                  00003aac    00000004     empty_pe430X.oe430X (.data:ti_sysbios_knl_Task_Module_State_0_idleTask__A)
                  00003ab0    00000004     empty_pe430X.oe430X (.data:ti_sysbios_utils_Load_Module_State_0_runningTask__A)
                  00003ab4    00000004     empty_pe430X.oe430X (.data:ti_sysbios_utils_Load_Module_State_0_taskStartTime__A)

.cio       0    00003ab8    00000120     UNINITIALIZED
                  00003ab8    00000120     rts430x_lc_rd_eabi.lib : trgmsg.obj (.cio)

.stack     0    00004100    00000300     UNINITIALIZED
                  00004100    00000004     boot.ae430X : boot.oe430X (.stack)
                  00004104    000002fc     --HOLE--

.text:_isr 
*          0    00004400    00000070     
                  00004400    00000026     boot.ae430X : boot_special.oe430X (.text:_isr:_c_int00_noargs_noexit)
                  00004426    00000020     sysbios.ae430X : BIOS.obj (.text:_isr:ti_sysbios_family_msp430_Hwi53)
                  00004446    00000002                    : BIOS.obj (.text:_isr:ti_sysbios_family_msp430_Hwi41)
                  00004448    00000002                    : BIOS.obj (.text:_isr:ti_sysbios_family_msp430_Hwi42)
                  0000444a    00000002                    : BIOS.obj (.text:_isr:ti_sysbios_family_msp430_Hwi43)
                  0000444c    00000002                    : BIOS.obj (.text:_isr:ti_sysbios_family_msp430_Hwi44)
                  0000444e    00000002                    : BIOS.obj (.text:_isr:ti_sysbios_family_msp430_Hwi45)
                  00004450    00000002                    : BIOS.obj (.text:_isr:ti_sysbios_family_msp430_Hwi46)
                  00004452    00000002                    : BIOS.obj (.text:_isr:ti_sysbios_family_msp430_Hwi47)
                  00004454    00000002                    : BIOS.obj (.text:_isr:ti_sysbios_family_msp430_Hwi48)
                  00004456    00000002                    : BIOS.obj (.text:_isr:ti_sysbios_family_msp430_Hwi49)
                  00004458    00000002                    : BIOS.obj (.text:_isr:ti_sysbios_family_msp430_Hwi50)
                  0000445a    00000002                    : BIOS.obj (.text:_isr:ti_sysbios_family_msp430_Hwi51)
                  0000445c    00000002                    : BIOS.obj (.text:_isr:ti_sysbios_family_msp430_Hwi52)
                  0000445e    00000002                    : BIOS.obj (.text:_isr:ti_sysbios_family_msp430_Hwi54)
                  00004460    00000002                    : BIOS.obj (.text:_isr:ti_sysbios_family_msp430_Hwi55)
                  00004462    00000002                    : BIOS.obj (.text:_isr:ti_sysbios_family_msp430_Hwi56)
                  00004464    00000002                    : BIOS.obj (.text:_isr:ti_sysbios_family_msp430_Hwi57)
                  00004466    00000002                    : BIOS.obj (.text:_isr:ti_sysbios_family_msp430_Hwi58)
                  00004468    00000002                    : BIOS.obj (.text:_isr:ti_sysbios_family_msp430_Hwi59)
                  0000446a    00000002                    : BIOS.obj (.text:_isr:ti_sysbios_family_msp430_Hwi60)
                  0000446c    00000002                    : BIOS.obj (.text:_isr:ti_sysbios_family_msp430_Hwi61)
                  0000446e    00000002                    : BIOS.obj (.text:_isr:ti_sysbios_family_msp430_Hwi62)

.const     0    000165a6    000025cc     
                  000165a6    00001d87     empty_pe430X.oe430X (.const:xdc_runtime_Text_charTab__A)
                  0001832d    00000001     --HOLE-- [fill = 0]
                  0001832e    0000015e     main.obj (.const:.string)
                  0001848c    000000e8     empty_pe430X.oe430X (.const:xdc_runtime_Text_nodeTab__A)
                  00018574    0000005e     empty_pe430X.oe430X (.const:ti_uia_loggers_LoggerStopMode_Module__FXNS__C)
                  000185d2    00000058     ti.targets.msp430.rts430.ae430X : Error.oe430X (.const:.string)
                  0001862a    00000046     empty_pe430X.oe430X (.const:.string)
                  00018670    00000044     ti.targets.msp430.rts430.ae430X : Text.oe430X (.const:.string)
                  000186b4    0000002c     empty_pe430X.oe430X (.const)
                  000186e0    0000002a     ti.targets.msp430.rts430.ae430X : Startup.oe430X (.const:.string)
                  0001870a    00000028     empty_pe430X.oe430X (.const:xdc_runtime_Startup_sfxnTab__A)
                  00018732    00000026     empty_pe430X.oe430X (.const:xdc_runtime_HeapStd_Module__FXNS__C)
                  00018758    00000022     empty_pe430X.oe430X (.const:ti_sysbios_gates_GateHwi_Module__FXNS__C)
                  0001877a    00000022     empty_pe430X.oe430X (.const:ti_sysbios_gates_GateMutex_Module__FXNS__C)
                  0001879c    00000020     sysbios.ae430X : BIOS.obj (.const:IntrinsicsSupport_maxbitTable)
                  000187bc    00000020     empty_pe430X.oe430X (.const:ti_uia_loggers_LoggerStopMode_Object__PARAMS__C)
                  000187dc    0000001c     ccs-MSP430F5529.lib : gpio.obj (.const:GPIO_PORT_TO_BASE)
                  000187f8    0000001c     empty_pe430X.oe430X (.const:ti_sysbios_knl_Semaphore_Object__PARAMS__C)
                  00018814    00000018     empty_pe430X.oe430X (.const:ti_sysbios_gates_GateHwi_Object__DESC__C)
                  0001882c    00000018     empty_pe430X.oe430X (.const:ti_sysbios_gates_GateMutex_Object__DESC__C)
                  00018844    00000018     empty_pe430X.oe430X (.const:ti_sysbios_knl_Queue_Object__DESC__C)
                  0001885c    00000018     empty_pe430X.oe430X (.const:ti_sysbios_knl_Semaphore_Object__DESC__C)
                  00018874    00000018     empty_pe430X.oe430X (.const:ti_uia_loggers_LoggerStopMode_Object__DESC__C)
                  0001888c    00000018     empty_pe430X.oe430X (.const:xdc_runtime_HeapStd_Object__DESC__C)
                  000188a4    00000018     empty_pe430X.oe430X (.const:xdc_runtime_HeapStd_Object__PARAMS__C)
                  000188bc    00000014     empty_pe430X.oe430X (.const:ti_sysbios_gates_GateHwi_Object__PARAMS__C)
                  000188d0    00000014     empty_pe430X.oe430X (.const:ti_sysbios_gates_GateMutex_Object__PARAMS__C)
                  000188e4    00000014     empty_pe430X.oe430X (.const:ti_sysbios_knl_Queue_Object__PARAMS__C)
                  000188f8    00000014     empty_pe430X.oe430X (.const:xdc_runtime_Startup_sfxnRts__A)
                  0001890c    00000011     ti.targets.msp430.rts430.ae430X : System.oe430X (.const:.string:digtohex)
                  0001891d    00000001     --HOLE-- [fill = 0]
                  0001891e    00000008                                     : System.oe430X (.const:.string)
                  00018926    00000008     empty_pe430X.oe430X (.const:ti_sysbios_knl_Idle_funcList__A)
                  0001892e    00000008     empty_pe430X.oe430X (.const:xdc_runtime_Startup_firstFxns__A)
                  00018936    00000006     ti.targets.msp430.rts430.ae430X : Assert.oe430X (.const:.string)
                  0001893c    00000006     empty_pe430X.oe430X (.const:ti_sysbios_family_msp430_Hwi_hooks__C)
                  00018942    00000006     empty_pe430X.oe430X (.const:ti_sysbios_knl_Idle_funcList__C)
                  00018948    00000006     empty_pe430X.oe430X (.const:xdc_runtime_Startup_firstFxns__C)
                  0001894e    00000006     empty_pe430X.oe430X (.const:xdc_runtime_Startup_lastFxns__C)
                  00018954    00000004     empty_pe430X.oe430X (.const:ti_sysbios_family_msp430_TimestampProvider_Module__diagsEnabled__C)
                  00018958    00000004     empty_pe430X.oe430X (.const:ti_sysbios_family_msp430_TimestampProvider_Module__diagsIncluded__C)
                  0001895c    00000004     empty_pe430X.oe430X (.const:ti_sysbios_family_msp430_TimestampProvider_Module__diagsMask__C)
                  00018960    00000004     empty_pe430X.oe430X (.const:ti_sysbios_gates_GateMutex_A_badContext__C)
                  00018964    00000004     empty_pe430X.oe430X (.const:ti_sysbios_gates_GateMutex_Module__diagsEnabled__C)
                  00018968    00000004     empty_pe430X.oe430X (.const:ti_sysbios_gates_GateMutex_Module__diagsIncluded__C)
                  0001896c    00000004     empty_pe430X.oe430X (.const:ti_sysbios_gates_GateMutex_Module__diagsMask__C)
                  00018970    00000004     empty_pe430X.oe430X (.const:ti_sysbios_hal_Hwi_E_stackOverflow__C)
                  00018974    00000004     empty_pe430X.oe430X (.const:ti_sysbios_knl_Clock_LM_begin__C)
                  00018978    00000004     empty_pe430X.oe430X (.const:ti_sysbios_knl_Clock_LM_tick__C)
                  0001897c    00000004     empty_pe430X.oe430X (.const:ti_sysbios_knl_Clock_LW_delayed__C)
                  00018980    00000004     empty_pe430X.oe430X (.const:ti_sysbios_knl_Clock_Module__diagsEnabled__C)
                  00018984    00000004     empty_pe430X.oe430X (.const:ti_sysbios_knl_Clock_Module__diagsIncluded__C)
                  00018988    00000004     empty_pe430X.oe430X (.const:ti_sysbios_knl_Clock_Module__diagsMask__C)
                  0001898c    00000004     empty_pe430X.oe430X (.const:ti_sysbios_knl_Clock_Module__loggerFxn1__C)
                  00018990    00000004     empty_pe430X.oe430X (.const:ti_sysbios_knl_Clock_Module__loggerFxn2__C)
                  00018994    00000004     empty_pe430X.oe430X (.const:ti_sysbios_knl_Clock_Module__loggerObj__C)
                  00018998    00000004     empty_pe430X.oe430X (.const:ti_sysbios_knl_Semaphore_A_badContext__C)
                  0001899c    00000004     empty_pe430X.oe430X (.const:ti_sysbios_knl_Semaphore_A_noEvents__C)
                  000189a0    00000004     empty_pe430X.oe430X (.const:ti_sysbios_knl_Semaphore_A_overflow__C)
                  000189a4    00000004     empty_pe430X.oe430X (.const:ti_sysbios_knl_Semaphore_A_pendTaskDisabled__C)
                  000189a8    00000004     empty_pe430X.oe430X (.const:ti_sysbios_knl_Semaphore_LM_pend__C)
                  000189ac    00000004     empty_pe430X.oe430X (.const:ti_sysbios_knl_Semaphore_LM_post__C)
                  000189b0    00000004     empty_pe430X.oe430X (.const:ti_sysbios_knl_Semaphore_Module__diagsEnabled__C)
                  000189b4    00000004     empty_pe430X.oe430X (.const:ti_sysbios_knl_Semaphore_Module__diagsIncluded__C)
                  000189b8    00000004     empty_pe430X.oe430X (.const:ti_sysbios_knl_Semaphore_Module__diagsMask__C)
                  000189bc    00000004     empty_pe430X.oe430X (.const:ti_sysbios_knl_Semaphore_Module__loggerFxn2__C)
                  000189c0    00000004     empty_pe430X.oe430X (.const:ti_sysbios_knl_Semaphore_Module__loggerFxn4__C)
                  000189c4    00000004     empty_pe430X.oe430X (.const:ti_sysbios_knl_Semaphore_Module__loggerObj__C)
                  000189c8    00000004     empty_pe430X.oe430X (.const:ti_sysbios_knl_Swi_LD_end__C)
                  000189cc    00000004     empty_pe430X.oe430X (.const:ti_sysbios_knl_Swi_LM_begin__C)
                  000189d0    00000004     empty_pe430X.oe430X (.const:ti_sysbios_knl_Swi_LM_post__C)
                  000189d4    00000004     empty_pe430X.oe430X (.const:ti_sysbios_knl_Swi_Module__diagsEnabled__C)
                  000189d8    00000004     empty_pe430X.oe430X (.const:ti_sysbios_knl_Swi_Module__diagsIncluded__C)
                  000189dc    00000004     empty_pe430X.oe430X (.const:ti_sysbios_knl_Swi_Module__diagsMask__C)
                  000189e0    00000004     empty_pe430X.oe430X (.const:ti_sysbios_knl_Swi_Module__loggerFxn1__C)
                  000189e4    00000004     empty_pe430X.oe430X (.const:ti_sysbios_knl_Swi_Module__loggerFxn4__C)
                  000189e8    00000004     empty_pe430X.oe430X (.const:ti_sysbios_knl_Swi_Module__loggerObj__C)
                  000189ec    00000004     empty_pe430X.oe430X (.const:ti_sysbios_knl_Task_E_spOutOfBounds__C)
                  000189f0    00000004     empty_pe430X.oe430X (.const:ti_sysbios_knl_Task_E_stackOverflow__C)
                  000189f4    00000004     empty_pe430X.oe430X (.const:ti_sysbios_knl_Task_LD_block__C)
                  000189f8    00000004     empty_pe430X.oe430X (.const:ti_sysbios_knl_Task_LD_exit__C)
                  000189fc    00000004     empty_pe430X.oe430X (.const:ti_sysbios_knl_Task_LD_ready__C)
                  00018a00    00000004     empty_pe430X.oe430X (.const:ti_sysbios_knl_Task_LM_switch__C)
                  00018a04    00000004     empty_pe430X.oe430X (.const:ti_sysbios_knl_Task_LM_yield__C)
                  00018a08    00000004     empty_pe430X.oe430X (.const:ti_sysbios_knl_Task_Module__diagsEnabled__C)
                  00018a0c    00000004     empty_pe430X.oe430X (.const:ti_sysbios_knl_Task_Module__diagsIncluded__C)
                  00018a10    00000004     empty_pe430X.oe430X (.const:ti_sysbios_knl_Task_Module__diagsMask__C)
                  00018a14    00000004     empty_pe430X.oe430X (.const:ti_sysbios_knl_Task_Module__loggerFxn2__C)
                  00018a18    00000004     empty_pe430X.oe430X (.const:ti_sysbios_knl_Task_Module__loggerFxn4__C)
                  00018a1c    00000004     empty_pe430X.oe430X (.const:ti_sysbios_knl_Task_Module__loggerObj__C)
                  00018a20    00000004     empty_pe430X.oe430X (.const:ti_sysbios_knl_Task_allBlockedFunc__C)
                  00018a24    00000004     empty_pe430X.oe430X (.const:ti_sysbios_utils_Load_LS_cpuLoad__C)
                  00018a28    00000004     empty_pe430X.oe430X (.const:ti_sysbios_utils_Load_Module__diagsEnabled__C)
                  00018a2c    00000004     empty_pe430X.oe430X (.const:ti_sysbios_utils_Load_Module__diagsIncluded__C)
                  00018a30    00000004     empty_pe430X.oe430X (.const:ti_sysbios_utils_Load_Module__diagsMask__C)
                  00018a34    00000004     empty_pe430X.oe430X (.const:ti_sysbios_utils_Load_Module__loggerFxn1__C)
                  00018a38    00000004     empty_pe430X.oe430X (.const:ti_sysbios_utils_Load_Module__loggerObj__C)
                  00018a3c    00000004     empty_pe430X.oe430X (.const:ti_sysbios_utils_Load_postUpdate__C)
                  00018a40    00000004     empty_pe430X.oe430X (.const:ti_uia_loggers_LoggerStopMode_Module__diagsEnabled__C)
                  00018a44    00000004     empty_pe430X.oe430X (.const:ti_uia_loggers_LoggerStopMode_Module__diagsIncluded__C)
                  00018a48    00000004     empty_pe430X.oe430X (.const:ti_uia_loggers_LoggerStopMode_Module__diagsMask__C)
                  00018a4c    00000004     empty_pe430X.oe430X (.const:ti_uia_runtime_ILoggerSnapshot_Interface__BASE__C)
                  00018a50    00000004     empty_pe430X.oe430X (.const:ti_uia_runtime_IUIATransfer_Interface__BASE__C)
                  00018a54    00000004     empty_pe430X.oe430X (.const:xdc_runtime_Assert_E_assertFailed__C)
                  00018a58    00000004     empty_pe430X.oe430X (.const:xdc_runtime_Core_A_initializedParams__C)
                  00018a5c    00000004     empty_pe430X.oe430X (.const:xdc_runtime_Core_Module__diagsEnabled__C)
                  00018a60    00000004     empty_pe430X.oe430X (.const:xdc_runtime_Core_Module__diagsIncluded__C)
                  00018a64    00000004     empty_pe430X.oe430X (.const:xdc_runtime_Core_Module__diagsMask__C)
                  00018a68    00000004     empty_pe430X.oe430X (.const:xdc_runtime_Error_E_memory__C)
                  00018a6c    00000004     empty_pe430X.oe430X (.const:xdc_runtime_Error_Module__diagsEnabled__C)
                  00018a70    00000004     empty_pe430X.oe430X (.const:xdc_runtime_Error_Module__diagsIncluded__C)
                  00018a74    00000004     empty_pe430X.oe430X (.const:xdc_runtime_Error_Module__diagsMask__C)
                  00018a78    00000004     empty_pe430X.oe430X (.const:xdc_runtime_Error_Module__loggerFxn8__C)
                  00018a7c    00000004     empty_pe430X.oe430X (.const:xdc_runtime_Error_Module__loggerObj__C)
                  00018a80    00000004     empty_pe430X.oe430X (.const:xdc_runtime_Error_policyFxn__C)
                  00018a84    00000004     empty_pe430X.oe430X (.const:xdc_runtime_Error_raiseHook__C)
                  00018a88    00000004     empty_pe430X.oe430X (.const:xdc_runtime_HeapStd_A_align__C)
                  00018a8c    00000004     empty_pe430X.oe430X (.const:xdc_runtime_HeapStd_A_invalidTotalFreeSize__C)
                  00018a90    00000004     empty_pe430X.oe430X (.const:xdc_runtime_HeapStd_A_zeroSize__C)
                  00018a94    00000004     empty_pe430X.oe430X (.const:xdc_runtime_HeapStd_E_noRTSMemory__C)
                  00018a98    00000004     empty_pe430X.oe430X (.const:xdc_runtime_HeapStd_Module__diagsEnabled__C)
                  00018a9c    00000004     empty_pe430X.oe430X (.const:xdc_runtime_HeapStd_Module__diagsIncluded__C)
                  00018aa0    00000004     empty_pe430X.oe430X (.const:xdc_runtime_HeapStd_Module__diagsMask__C)
                  00018aa4    00000004     empty_pe430X.oe430X (.const:xdc_runtime_IFilterLogger_Interface__BASE__C)
                  00018aa8    00000004     empty_pe430X.oe430X (.const:xdc_runtime_IGateProvider_Interface__BASE__C)
                  00018aac    00000004     empty_pe430X.oe430X (.const:xdc_runtime_IHeap_Interface__BASE__C)
                  00018ab0    00000004     empty_pe430X.oe430X (.const:xdc_runtime_ILogger_Interface__BASE__C)
                  00018ab4    00000004     empty_pe430X.oe430X (.const:xdc_runtime_IModule_Interface__BASE__C)
                  00018ab8    00000004     empty_pe430X.oe430X (.const:xdc_runtime_Log_L_error__C)
                  00018abc    00000004     empty_pe430X.oe430X (.const:xdc_runtime_Log_L_info__C)
                  00018ac0    00000004     empty_pe430X.oe430X (.const:xdc_runtime_Main_Module__diagsEnabled__C)
                  00018ac4    00000004     empty_pe430X.oe430X (.const:xdc_runtime_Main_Module__diagsIncluded__C)
                  00018ac8    00000004     empty_pe430X.oe430X (.const:xdc_runtime_Main_Module__diagsMask__C)
                  00018acc    00000004     empty_pe430X.oe430X (.const:xdc_runtime_Main_Module__loggerFxn4__C)
                  00018ad0    00000004     empty_pe430X.oe430X (.const:xdc_runtime_Main_Module__loggerFxn8__C)
                  00018ad4    00000004     empty_pe430X.oe430X (.const:xdc_runtime_Main_Module__loggerObj__C)
                  00018ad8    00000004     empty_pe430X.oe430X (.const:xdc_runtime_Memory_defaultHeapInstance__C)
                  00018adc    00000004     empty_pe430X.oe430X (.const:xdc_runtime_Startup_execImpl__C)
                  00018ae0    00000004     empty_pe430X.oe430X (.const:xdc_runtime_Startup_sfxnRts__C)
                  00018ae4    00000004     empty_pe430X.oe430X (.const:xdc_runtime_Startup_sfxnTab__C)
                  00018ae8    00000004     empty_pe430X.oe430X (.const:xdc_runtime_SysMin_outputFunc__C)
                  00018aec    00000004     empty_pe430X.oe430X (.const:xdc_runtime_System_Module__gateObj__C)
                  00018af0    00000004     empty_pe430X.oe430X (.const:xdc_runtime_System_abortFxn__C)
                  00018af4    00000004     empty_pe430X.oe430X (.const:xdc_runtime_System_exitFxn__C)
                  00018af8    00000004     empty_pe430X.oe430X (.const:xdc_runtime_System_extendFxn__C)
                  00018afc    00000004     empty_pe430X.oe430X (.const:xdc_runtime_Text_charTab__C)
                  00018b00    00000004     empty_pe430X.oe430X (.const:xdc_runtime_Text_nameEmpty__C)
                  00018b04    00000004     empty_pe430X.oe430X (.const:xdc_runtime_Text_nameStatic__C)
                  00018b08    00000004     empty_pe430X.oe430X (.const:xdc_runtime_Text_nameUnknown__C)
                  00018b0c    00000004     empty_pe430X.oe430X (.const:xdc_runtime_Text_nodeTab__C)
                  00018b10    00000004     empty_pe430X.oe430X (.const:xdc_runtime_Text_visitRopeFxn__C)
                  00018b14    00000002     empty_pe430X.oe430X (.const:ti_sysbios_family_msp430_Hwi_Object__count__C)
                  00018b16    00000002     empty_pe430X.oe430X (.const:ti_sysbios_family_msp430_Timer_numTimerDevices__C)
                  00018b18    00000002     empty_pe430X.oe430X (.const:ti_sysbios_family_msp430_Timer_startupNeeded__C)
                  00018b1a    00000002     empty_pe430X.oe430X (.const:ti_sysbios_family_msp430_TimestampProvider_Module__id__C)
                  00018b1c    00000002     empty_pe430X.oe430X (.const:ti_sysbios_family_msp430_TimestampProvider_useClockTimer__C)
                  00018b1e    00000002     empty_pe430X.oe430X (.const:ti_sysbios_gates_GateMutex_Instance_State_sem__O)
                  00018b20    00000002     empty_pe430X.oe430X (.const:ti_sysbios_gates_GateMutex_Module__id__C)
                  00018b22    00000002     empty_pe430X.oe430X (.const:ti_sysbios_hal_Hwi_Module__id__C)
                  00018b24    00000002     empty_pe430X.oe430X (.const:ti_sysbios_heaps_HeapMem_Object__count__C)
                  00018b26    00000002     empty_pe430X.oe430X (.const:ti_sysbios_knl_Clock_Module_State_clockQ__O)
                  00018b28    00000002     empty_pe430X.oe430X (.const:ti_sysbios_knl_Clock_Module__id__C)
                  00018b2a    00000002     empty_pe430X.oe430X (.const:ti_sysbios_knl_Clock_Module__loggerDefined__C)
                  00018b2c    00000002     empty_pe430X.oe430X (.const:ti_sysbios_knl_Semaphore_Instance_State_pendQ__O)
                  00018b2e    00000002     empty_pe430X.oe430X (.const:ti_sysbios_knl_Semaphore_Module__id__C)
                  00018b30    00000002     empty_pe430X.oe430X (.const:ti_sysbios_knl_Semaphore_Module__loggerDefined__C)
                  00018b32    00000002     empty_pe430X.oe430X (.const:ti_sysbios_knl_Swi_Module__id__C)
                  00018b34    00000002     empty_pe430X.oe430X (.const:ti_sysbios_knl_Swi_Module__loggerDefined__C)
                  00018b36    00000002     empty_pe430X.oe430X (.const:ti_sysbios_knl_Swi_Object__count__C)
                  00018b38    00000002     empty_pe430X.oe430X (.const:ti_sysbios_knl_Task_Module_State_inactiveQ__O)
                  00018b3a    00000002     empty_pe430X.oe430X (.const:ti_sysbios_knl_Task_Module__id__C)
                  00018b3c    00000002     empty_pe430X.oe430X (.const:ti_sysbios_knl_Task_Module__loggerDefined__C)
                  00018b3e    00000002     empty_pe430X.oe430X (.const:ti_sysbios_knl_Task_Object__count__C)
                  00018b40    00000002     empty_pe430X.oe430X (.const:ti_sysbios_knl_Task_initStackFlag__C)
                  00018b42    00000002     empty_pe430X.oe430X (.const:ti_sysbios_knl_Task_numConstructedTasks__C)
                  00018b44    00000002     empty_pe430X.oe430X (.const:ti_sysbios_utils_Load_Module__id__C)
                  00018b46    00000002     empty_pe430X.oe430X (.const:ti_sysbios_utils_Load_Module__loggerDefined__C)
                  00018b48    00000002     empty_pe430X.oe430X (.const:ti_sysbios_utils_Load_updateInIdle__C)
                  00018b4a    00000002     empty_pe430X.oe430X (.const:ti_sysbios_utils_Load_windowInMs__C)
                  00018b4c    00000002     empty_pe430X.oe430X (.const:ti_uia_loggers_LoggerStopMode_Module__id__C)
                  00018b4e    00000002     empty_pe430X.oe430X (.const:ti_uia_loggers_LoggerStopMode_Object__count__C)
                  00018b50    00000002     empty_pe430X.oe430X (.const:ti_uia_loggers_LoggerStopMode_isTimestampEnabled__C)
                  00018b52    00000002     empty_pe430X.oe430X (.const:xdc_runtime_Core_Module__id__C)
                  00018b54    00000002     empty_pe430X.oe430X (.const:xdc_runtime_Error_Module__loggerDefined__C)
                  00018b56    00000002     empty_pe430X.oe430X (.const:xdc_runtime_Error_maxDepth__C)
                  00018b58    00000002     empty_pe430X.oe430X (.const:xdc_runtime_Error_policy__C)
                  00018b5a    00000002     empty_pe430X.oe430X (.const:xdc_runtime_HeapStd_Module__id__C)
                  00018b5c    00000002     empty_pe430X.oe430X (.const:xdc_runtime_Main_Module__id__C)
                  00018b5e    00000002     empty_pe430X.oe430X (.const:xdc_runtime_Main_Module__loggerDefined__C)
                  00018b60    00000002     empty_pe430X.oe430X (.const:xdc_runtime_Memory_Module__id__C)
                  00018b62    00000002     empty_pe430X.oe430X (.const:xdc_runtime_Startup_maxPasses__C)
                  00018b64    00000002     empty_pe430X.oe430X (.const:xdc_runtime_SysMin_bufSize__C)
                  00018b66    00000002     empty_pe430X.oe430X (.const:xdc_runtime_SysMin_flushAtExit__C)
                  00018b68    00000002     empty_pe430X.oe430X (.const:xdc_runtime_System_maxAtexitHandlers__C)
                  00018b6a    00000002     empty_pe430X.oe430X (.const:xdc_runtime_Text_charCnt__C)
                  00018b6c    00000002     empty_pe430X.oe430X (.const:xdc_runtime_Text_isLoaded__C)
                  00018b6e    00000002     empty_pe430X.oe430X (.const:xdc_runtime_Text_registryModsLastId__C)
                  00018b70    00000002     empty_pe430X.oe430X (.const:xdc_runtime_Text_unnamedModsLastId__C)

.cinit     0    00018b72    00000478     
                  00018b72    00000448     (.cinit..data.load) [load image, compression = rle]
                  00018fba    0000000c     (__TI_handler_table)
                  00018fc6    00000006     (.cinit..bss.load) [load image, compression = zero_init]
                  00018fcc    00000006     (.cinit..cio.load) [load image, compression = zero_init]
                  00018fd2    00000018     (__TI_cinit_table)

.init_array 
*          0    00004400    00000000     UNINITIALIZED

.TI.persistent 
*          0    00003424    00000000     UNINITIALIZED

RTC        0    0000ffd2    00000002     
                  0000ffd2    00000002     sysbios.ae430X : BIOS.obj (.int41)

PORT2      0    0000ffd4    00000002     
                  0000ffd4    00000002     sysbios.ae430X : BIOS.obj (.int42)

TIMER2_A1 
*          0    0000ffd6    00000002     
                  0000ffd6    00000002     sysbios.ae430X : BIOS.obj (.int43)

TIMER2_A0 
*          0    0000ffd8    00000002     
                  0000ffd8    00000002     sysbios.ae430X : BIOS.obj (.int44)

USCI_B1    0    0000ffda    00000002     
                  0000ffda    00000002     sysbios.ae430X : BIOS.obj (.int45)

USCI_A1    0    0000ffdc    00000002     
                  0000ffdc    00000002     sysbios.ae430X : BIOS.obj (.int46)

PORT1      0    0000ffde    00000002     
                  0000ffde    00000002     sysbios.ae430X : BIOS.obj (.int47)

TIMER1_A1 
*          0    0000ffe0    00000002     
                  0000ffe0    00000002     sysbios.ae430X : BIOS.obj (.int48)

TIMER1_A0 
*          0    0000ffe2    00000002     
                  0000ffe2    00000002     sysbios.ae430X : BIOS.obj (.int49)

DMA        0    0000ffe4    00000002     
                  0000ffe4    00000002     sysbios.ae430X : BIOS.obj (.int50)

USB_UBM    0    0000ffe6    00000002     
                  0000ffe6    00000002     sysbios.ae430X : BIOS.obj (.int51)

TIMER0_A1 
*          0    0000ffe8    00000002     
                  0000ffe8    00000002     sysbios.ae430X : BIOS.obj (.int52)

TIMER0_A0 
*          0    0000ffea    00000002     
                  0000ffea    00000002     sysbios.ae430X : BIOS.obj (.int53)

ADC12      0    0000ffec    00000002     
                  0000ffec    00000002     sysbios.ae430X : BIOS.obj (.int54)

USCI_B0    0    0000ffee    00000002     
                  0000ffee    00000002     sysbios.ae430X : BIOS.obj (.int55)

USCI_A0    0    0000fff0    00000002     
                  0000fff0    00000002     sysbios.ae430X : BIOS.obj (.int56)

WDT        0    0000fff2    00000002     
                  0000fff2    00000002     sysbios.ae430X : BIOS.obj (.int57)

TIMER0_B1 
*          0    0000fff4    00000002     
                  0000fff4    00000002     sysbios.ae430X : BIOS.obj (.int58)

TIMER0_B0 
*          0    0000fff6    00000002     
                  0000fff6    00000002     sysbios.ae430X : BIOS.obj (.int59)

COMP_B     0    0000fff8    00000002     
                  0000fff8    00000002     sysbios.ae430X : BIOS.obj (.int60)

UNMI       0    0000fffa    00000002     
                  0000fffa    00000002     sysbios.ae430X : BIOS.obj (.int61)

SYSNMI     0    0000fffc    00000002     
                  0000fffc    00000002     sysbios.ae430X : BIOS.obj (.int62)

.reset     0    0000fffe    00000002     
                  0000fffe    00000002     boot.ae430X : boot.oe430X (.reset)

xdc.meta   0    00000000    000000f8     COPY SECTION
                  00000000    000000f8     empty_pe430X.oe430X (xdc.meta)

.text      0    00010000    000065a6     
                  00010000    000004dc     sysbios.ae430X : BIOS.obj (.text:ti_sysbios_knl_Semaphore_pend__E)
                  000104dc    000004d2     ti.targets.msp430.rts430.ae430X : System.oe430X (.text:xdc_runtime_System_doPrint__I)
                  000109ae    00000272                                     : HeapStd.oe430X (.text:xdc_runtime_HeapStd_alloc__E)
                  00010c20    0000025e     empty_pe430X.oe430X (.text:ti_uia_loggers_LoggerStopMode_write8__E)
                  00010e7e    00000252     empty_pe430X.oe430X (.text:ti_uia_loggers_LoggerStopMode_writeMemoryRange__E)
                  000110d0    00000208     sysbios.ae430X : BIOS.obj (.text:ti_sysbios_knl_Semaphore_post__E)
                  000112d8    000001ee     empty_pe430X.oe430X (.text:ti_uia_loggers_LoggerStopMode_write4__E)
                  000114c6    000001c8     ti.targets.msp430.rts430.ae430X : Core-mem.oe430X (.text:xdc_runtime_Core_createObject__I)
                  0001168e    000001b6     empty_pe430X.oe430X (.text:ti_uia_loggers_LoggerStopMode_write2__E)
                  00011844    000001b2     sysbios.ae430X : BIOS.obj (.text:ti_sysbios_knl_Swi_run__I)
                  000119f6    00000198                    : BIOS.obj (.text:ti_sysbios_knl_Clock_workFunc__E)
                  00011b8e    00000198     empty_pe430X.oe430X (.text:ti_uia_loggers_LoggerStopMode_write1__E)
                  00011d26    00000190     ti.targets.msp430.rts430.ae430X : HeapStd.oe430X (.text:xdc_runtime_HeapStd_Instance_init__E)
                  00011eb6    0000017e     empty_pe430X.oe430X (.text:ti_uia_loggers_LoggerStopMode_write0__E)
                  00012034    0000016c     ti.targets.msp430.rts430.ae430X : Core-smem.oe430X (.text:xdc_runtime_Core_constructObject__I)
                  000121a0    00000164     empty_pe430X.oe430X (.text:xdc_runtime_System_printfExtend__I)
                  00012304    0000015a     sysbios.ae430X : BIOS.obj (.text:ti_sysbios_knl_Task_startCore__E)
                  0001245e    00000158     ti.targets.msp430.rts430.ae430X : Error.oe430X (.text:xdc_runtime_Error_policyDefault__E)
                  000125b6    00000154     sysbios.ae430X : BIOS.obj (.text:ti_sysbios_knl_Task_schedule__I)
                  0001270a    0000014e                    : BIOS.obj (.text:ti_sysbios_utils_Load_updateLoads__E)
                  00012858    00000148                    : BIOS.obj (.text:ti_sysbios_gates_GateMutex_enter__E)
                  000129a0    00000146     ti.targets.msp430.rts430.ae430X : HeapStd.oe430X (.text:xdc_runtime_HeapStd_free__E)
                  00012ae6    00000136     sysbios.ae430X : BIOS.obj (.text:ti_sysbios_knl_Task_checkStacks__E)
                  00012c1c    00000132                    : BIOS.obj (.text:ti_sysbios_knl_Semaphore_Instance_init__E)
                  00012d4e    00000122                    : BIOS.obj (.text:ti_sysbios_utils_Load_idleFxn__E)
                  00012e70    0000010c                    : BIOS.obj (.text:ti_sysbios_knl_Task_yield__E)
                  00012f7c    00000100                    : BIOS.obj (.text:ti_sysbios_knl_Swi_post__E)
                  0001307c    00000100                    : BIOS.obj (.text:ti_sysbios_knl_Swi_restoreHwi__E)
                  0001317c    000000f0                    : BIOS.obj (.text:ti_sysbios_knl_Task_unblockI__E)
                  0001326c    000000e2     ccs-MSP430F5529.lib : ucs.obj (.text:UCS_initFLL)
                  0001334e    000000de     sysbios.ae430X : BIOS.obj (.text:ti_sysbios_knl_Task_blockI__E)
                  0001342c    000000dc                    : BIOS.obj (.text:ti_sysbios_knl_Swi_runLoop__I)
                  00013508    000000d8     ti.uia.loggers.ae430X : LoggerStopMode.oe430X (.text:ti_uia_loggers_LoggerStopMode_flush__E)
                  000135e0    000000d8                           : LoggerStopMode.oe430X (.text:ti_uia_loggers_LoggerStopMode_initQueueDescriptor__E)
                  000136b8    000000d2     sysbios.ae430X : BIOS.obj (.text:ti_sysbios_knl_Task_exit__E)
                  0001378a    000000c0     ti.targets.msp430.rts430.ae430X : Startup.oe430X (.text:xdc_runtime_Startup_startMods__I)
                  0001384a    000000be     main.obj (.text:printMessage)
                  00013908    000000bc     main.obj (.text:hardware_init)
                  000139c4    000000b8     ti.targets.msp430.rts430.ae430X : Text.oe430X (.text:xdc_runtime_Text_putSite__E)
                  00013a7c    000000b4     sysbios.ae430X : BIOS.obj (.text:ti_sysbios_knl_Swi_schedule__I)
                  00013b30    000000ae     main.obj (.text:remove_item)
                  00013bde    000000aa     main.obj (.text:insert_item)
                  00013c88    000000a8     sysbios.ae430X : BIOS.obj (.text:ti_sysbios_knl_Task_postInit__I)
                  00013d30    0000009c     main.obj (.text:printErrorMessage)
                  00013dcc    0000009a     ti.uia.runtime.ae430X : QueueDescriptor.oe430X (.text:ti_uia_runtime_QueueDescriptor_addToList__E)
                  00013e66    00000096     ti.targets.msp430.rts430.ae430X : System.oe430X (.text:xdc_runtime_System_formatNum__I)
                  00013efc    00000092                                     : Error.oe430X (.text:xdc_runtime_Error_print__E)
                  00013f8e    0000008a     sysbios.ae430X : BIOS.obj (.text:ti_sysbios_family_msp430_Timer_getExpiredCounts__E)
                  00014018    0000008a                    : BIOS.obj (.text:ti_sysbios_family_msp430_TimestampProvider_Module_startup__E)
                  000140a2    00000088     ccs-MSP430F5529.lib : ucs.obj (.text:UCS_initClockSignal)
                  0001412a    00000088     sysbios.ae430X : BIOS.obj (.text:ti_sysbios_knl_Clock_logTick__E)
                  000141b2    00000088                    : BIOS.obj (.text:ti_sysbios_utils_Load_logCPULoad__I)
                  0001423a    00000086     ti.targets.msp430.rts430.ae430X : Text.oe430X (.text:xdc_runtime_Text_putMod__E)
                  000142c0    00000084     sysbios.ae430X : BIOS.obj (.text:ti_sysbios_family_msp430_Hwi_Module_startup__E)
                  00014344    00000082     ti.targets.msp430.rts430.ae430X : Text.oe430X (.text:xdc_runtime_Text_putLab__E)
                  000143c6    00000080     sysbios.ae430X : BIOS.obj (.text:ti_sysbios_family_msp430_TimestampProvider_get32__E)
                  00014446    00000080     ti.targets.msp430.rts430.ae430X : Memory.oe430X (.text:xdc_runtime_Memory_alloc__E)
                  000144c6    00000078     sysbios.ae430X : msp430_TaskSupport_asm.obj (.text:_ti_sysbios_family_msp430_TaskSupport_buildTaskStack)
                  0001453e    00000078     ti.targets.msp430.rts430.ae430X : Error.oe430X (.text:xdc_runtime_Error_setX__E)
                  000145b6    00000076                                     : Core-mem.oe430X (.text:xdc_runtime_Core_deleteObject__I)
                  0001462c    00000072     sysbios.ae430X : BIOS.obj (.text:ti_sysbios_family_msp430_Timer_periodicStub__E)
                  0001469e    00000072                    : BIOS.obj (.text:ti_sysbios_heaps_HeapMem_init__I)
                  00014710    00000070     boot.ae430X : autoinit_wdt.oe430X (.text:_auto_init_hold_wdt)
                  00014780    0000006c     empty_pe430X.oe430X (.text:xdc_runtime_HeapStd_Object__create__S)
                  000147ec    0000006a     rts430x_lc_rd_eabi.lib : trgdrv.obj (.text:HOSTwrite)
                  00014856    00000068                            : copy_decompress_rle.obj (.text:__TI_decompress_rle_core)
                  000148be    00000068     sysbios.ae430X : BIOS.obj (.text:ti_sysbios_family_msp430_TaskSupport_start__E)
                  00014926    00000068     ti.targets.msp430.rts430.ae430X : Assert.oe430X (.text:xdc_runtime_Assert_raise__I)
                  0001498e    00000066     sysbios.ae430X : BIOS.obj (.text:ti_sysbios_knl_Task_Module_startup__E)
                  000149f4    00000064                    : BIOS.obj (.text:ti_sysbios_family_msp430_Hwi_postInit__I)
                  00014a58    00000064     ti.targets.msp430.rts430.ae430X : SysMin.oe430X (.text:xdc_runtime_SysMin_flush__E)
                  00014abc    00000060     sysbios.ae430X : BIOS.obj (.text:ti_sysbios_family_msp430_Timer_getFreq__E)
                  00014b1c    00000060     ti.uia.loggers.ae430X : LoggerStopMode.oe430X (.text:ti_uia_loggers_LoggerStopMode_initBuffer__I)
                  00014b7c    0000005e     sysbios.ae430X : BIOS.obj (.text:ti_sysbios_family_msp430_Timer_setNextTick__E)
                  00014bda    0000005a     ti.targets.msp430.rts430.ae430X : Text.oe430X (.text:xdc_runtime_Text_visitRope2__I)
                  00014c34    00000058     rts430x_lc_rd_eabi.lib : div32u.obj (.text)
                  00014c8c    00000056                            : trgdrv.obj (.text:HOSTtime)
                  00014ce2    00000056     main.obj (.text:producerHandler)
                  00014d38    00000056     sysbios.ae430X : BIOS.obj (.text:ti_sysbios_family_msp430_Hwi_getStackInfo__E)
                  00014d8e    00000056     ti.uia.loggers.ae430X : LoggerStopMode.oe430X (.text:ti_uia_loggers_LoggerStopMode_reset__E)
                  00014de4    00000056     ti.targets.msp430.rts430.ae430X : SysMin.oe430X (.text:xdc_runtime_SysMin_putch__E)
                  00014e3a    00000054     sysbios.ae430X : BIOS.obj (.text:ti_sysbios_family_msp430_Timer_start__E)
                  00014e8e    00000054                    : BIOS.obj (.text:ti_sysbios_knl_Task_processVitalTaskFlag__I)
                  00014ee2    00000052                    : BIOS.obj (.text:ti_sysbios_knl_Swi_restore__E)
                  00014f34    00000052     ti.targets.msp430.rts430.ae430X : Startup.oe430X (.text:xdc_runtime_Startup_exec__E)
                  00014f86    00000050     sysbios.ae430X : BIOS.obj (.text:ti_sysbios_family_msp430_Timer_initDevice__I)
                  00014fd6    00000050                    : BIOS.obj (.text:ti_sysbios_utils_Load_updateCurrentThreadTime__E)
                  00015026    0000004e     ti.targets.msp430.rts430.ae430X : Core-params.oe430X (.text:xdc_runtime_Core_assignParams__I)
                  00015074    0000004c     ti.catalog.msp430.init.ae430X : Boot.oe430X (.text:.bootCodeSection:ti_catalog_msp430_init_Boot_configureDCO)
                  000150c0    0000004c     sysbios.ae430X : BIOS.obj (.text:ti_sysbios_knl_Semaphore_pendTimeout__I)
                  0001510c    0000004c     ti.uia.loggers.ae430X : LoggerStopMode.oe430X (.text:ti_uia_loggers_LoggerStopMode_Module_startup__E)
                  00015158    0000004a     sysbios.ae430X : BIOS.obj (.text:ti_sysbios_family_msp430_Timer_startup__E)
                  000151a2    0000004a                    : BIOS.obj (.text:ti_sysbios_knl_Task_allBlockedFunction__I)
                  000151ec    00000048                    : BIOS.obj (.text:ti_sysbios_hal_Hwi_checkStack)
                  00015234    00000046                    : BIOS.obj (.text:ti_sysbios_family_msp430_Timer_Module_startup__E)
                  0001527a    00000042                    : BIOS.obj (.text:ti_sysbios_family_msp430_Timer_getCount__E)
                  000152bc    00000042     empty_pe430X.oe430X (.text:ti_sysbios_gates_GateHwi_Object__create__S)
                  000152fe    00000042     empty_pe430X.oe430X (.text:ti_sysbios_gates_GateMutex_Object__create__S)
                  00015340    00000042     sysbios.ae430X : BIOS.obj (.text:ti_sysbios_knl_Clock_addI__E)
                  00015382    00000042     empty_pe430X.oe430X (.text:ti_uia_loggers_LoggerStopMode_Object__create__S)
                  000153c4    00000042     ti.targets.msp430.rts430.ae430X : Text.oe430X (.text:xdc_runtime_Text_xprintf__I)
                  00015406    00000040     main.obj (.text:ledSrvTaskHandler)
                  00015446    00000040     rts430x_lc_rd_eabi.lib : rand.obj (.text:rand)
                  00015486    00000040     ti.targets.msp430.rts430.ae430X : Text.oe430X (.text:xdc_runtime_Text_printVisFxn__I)
                  000154c6    0000003e     main.obj (.text:consumerHandler)
                  00015504    0000003e     rts430x_lc_rd_eabi.lib : lsl32.obj (.text:l_lsl_const)
                  00015542    0000003e                            : lsr32.obj (.text:l_lsr_const)
                  00015580    0000003e     empty_pe430X.oe430X (.text:ti_sysbios_knl_Semaphore_construct)
                  000155be    0000003e     ti.targets.msp430.rts430.ae430X : System.oe430X (.text:xdc_runtime_System_atexit__E)
                  000155fc    0000003c     sysbios.ae430X : BIOS.obj (.text:ti_sysbios_hal_Hwi_initStack)
                  00015638    0000003c     ti.targets.msp430.rts430.ae430X : System.oe430X (.text:xdc_runtime_System_processAtExit__E)
                  00015674    0000003a     empty_pe430X.oe430X (.text:ti_sysbios_knl_Queue_construct)
                  000156ae    0000003a     ti.targets.msp430.rts430.ae430X : System.oe430X (.text:xdc_runtime_System_putchar__I)
                  000156e8    00000038     sysbios.ae430X : BIOS.obj (.text:ti_sysbios_family_msp430_Hwi53_p2)
                  00015720    00000036     rts430x_lc_rd_eabi.lib : trgmsg.obj (.text:__TI_writemsg)
                  00015756    00000036     ti.targets.msp430.rts430.ae430X : Error.oe430X (.text:xdc_runtime_Error_raiseX__E)
                  0001578c    00000032     ccs-MSP430F5529.lib : ucs.obj (.text:UCS_initFLLSettle)
                  000157be    00000032     rts430x_lc_rd_eabi.lib : trgmsg.obj (.text:__TI_readmsg)
                  000157f0    00000032     sysbios.ae430X : BIOS.obj (.text:ti_sysbios_family_msp430_Timer_postInit__I)
                  00015822    00000032                    : BIOS.obj (.text:ti_sysbios_family_msp430_Timer_stop__E)
                  00015854    00000032                    : msp430_Hwi_switch_asm.obj (.text:ti_sysbios_family_xxx_Hwi_switchAndRunFunc)
                  00015886    00000032     ti.targets.msp430.rts430.ae430X : Core-label.oe430X (.text:xdc_runtime_Core_assignLabel__I)
                  000158b8    00000032                                     : SysMin.oe430X (.text:xdc_runtime_SysMin_abort__E)
                  000158ea    00000032                                     : System.oe430X (.text:xdc_runtime_System_avprintf__E)
                  0001591c    00000032                                     : System.oe430X (.text:xdc_runtime_System_vprintf__E)
                  0001594e    00000030     sysbios.ae430X : BIOS.obj (.text:ti_sysbios_knl_Queue_put__E)
                  0001597e    00000030                    : BIOS.obj (.text:ti_sysbios_knl_Task_restore__E)
                  000159ae    0000002e     rts430x_lc_rd_eabi.lib : exit.obj (.text:exit)
                  000159dc    0000002e     main.obj (.text:prepForLedSrv)
                  00015a0a    0000002c     rts430x_lc_rd_eabi.lib : div16s.obj (.text)
                  00015a36    0000002c     empty_pe430X.oe430X (.text:ti_sysbios_knl_Clock_doTick__I)
                  00015a62    0000002c     sysbios.ae430X : BIOS.obj (.text:ti_sysbios_utils_Load_updateThreadContexts__E)
                  00015a8e    0000002a     empty_pe430X.oe430X (.text:ti_sysbios_BIOS_atExitFunc__I)
                  00015ab8    0000002a     empty_pe430X.oe430X (.text:ti_sysbios_family_msp430_Hwi_Object__get__S)
                  00015ae2    0000002a     sysbios.ae430X : BIOS.obj (.text:ti_sysbios_knl_Clock_Module_startup__E)
                  00015b0c    0000002a     empty_pe430X.oe430X (.text:ti_sysbios_knl_Swi_Object__get__S)
                  00015b36    0000002a     empty_pe430X.oe430X (.text:ti_sysbios_knl_Task_Object__get__S)
                  00015b60    0000002a     empty_pe430X.oe430X (.text:ti_uia_loggers_LoggerStopMode_Object__get__S)
                  00015b8a    0000002a     empty_pe430X.oe430X (.text:xdc_runtime_SysMin_output__I)
                  00015bb4    00000028     ccs-MSP430F5529.lib : gpio.obj (.text:GPIO_setAsOutputPin)
                  00015bdc    00000028     empty_pe430X.oe430X (.text:ti_sysbios_BIOS_errorRaiseHook__I)
                  00015c04    00000028     ti.targets.msp430.rts430.ae430X : Text.oe430X (.text:xdc_runtime_Text_cordText__E)
                  00015c2c    00000026     empty_pe430X.oe430X (.text:ti_sysbios_gates_GateMutex_Object__delete__S)
                  00015c52    00000026     sysbios.ae430X : BIOS.obj (.text:ti_sysbios_knl_Swi_Module_startup__E)
                  00015c78    00000024     rts430x_lc_rd_eabi.lib : copy_zero_init.obj (.text:decompress:ZI:__TI_zero_init)
                  00015c9c    00000024     main.obj (.text:ledToggle)
                  00015cc0    00000024     empty_pe430X.oe430X (.text:ti_sysbios_BIOS_rtsLock__I)
                  00015ce4    00000024     empty_pe430X.oe430X (.text:ti_sysbios_gates_GateHwi_Object__delete__S)
                  00015d08    00000024     ti.uia.loggers.ae430X : LoggerStopMode.oe430X (.text:ti_uia_loggers_LoggerStopMode_Instance_init__E)
                  00015d2c    00000024     empty_pe430X.oe430X (.text:ti_uia_loggers_LoggerStopMode_Object__delete__S)
                  00015d50    00000024     empty_pe430X.oe430X (.text:xdc_runtime_HeapStd_Object__delete__S)
                  00015d74    00000022     main.obj (.text:main)
                  00015d96    00000022     rts430x_lc_rd_eabi.lib : mult32_f5hw.obj (.text)
                  00015db8    00000022     sysbios.ae430X : BIOS.obj (.text:ti_sysbios_gates_GateMutex_Instance_init__E)
                  00015dda    00000022                    : BIOS.obj (.text:ti_sysbios_gates_GateMutex_leave__E)
                  00015dfc    00000022                    : BIOS.obj (.text:ti_sysbios_knl_Clock_startI__E)
                  00015e1e    00000022                    : BIOS.obj (.text:ti_sysbios_knl_Idle_run__E)
                  00015e40    00000022                    : BIOS.obj (.text:ti_sysbios_knl_Task_restoreHwi__E)
                  00015e62    00000022                    : BIOS.obj (.text:ti_sysbios_knl_Task_unblock__E)
                  00015e84    00000022     ti.uia.loggers.ae430X : LoggerStopMode.oe430X (.text:ti_uia_loggers_LoggerStopMode_disable__E)
                  00015ea6    00000022                           : LoggerStopMode.oe430X (.text:ti_uia_loggers_LoggerStopMode_enable__E)
                  00015ec8    00000022     ti.targets.msp430.rts430.ae430X : Memory.oe430X (.text:xdc_runtime_Memory_valloc__E)
                  00015eea    00000020                                     : Error.oe430X (.text:xdc_runtime_Error_check__E)
                  00015f0a    00000020                                     : HeapStd.oe430X (.text:xdc_runtime_HeapStd_getStats__E)
                  00015f2a    0000001e     empty_pe430X.oe430X (.text:ti_sysbios_BIOS_rtsUnlock__I)
                  00015f48    0000001e     empty_pe430X.oe430X (.text:ti_sysbios_family_msp430_Timer_Module__startupDone__F)
                  00015f66    0000001e     empty_pe430X.oe430X (.text:ti_sysbios_gates_GateHwi_Handle__label__S)
                  00015f84    0000001e     empty_pe430X.oe430X (.text:ti_sysbios_gates_GateMutex_Handle__label__S)
                  00015fa2    0000001e     sysbios.ae430X : BIOS.obj (.text:ti_sysbios_knl_Task_enter__I)
                  00015fc0    0000001e     empty_pe430X.oe430X (.text:ti_uia_loggers_LoggerStopMode_Handle__label__S)
                  00015fde    0000001e     empty_pe430X.oe430X (.text:xdc_runtime_HeapStd_Handle__label__S)
                  00015ffc    0000001c     ccs-MSP430F5529.lib : gpio.obj (.text:GPIO_setOutputLowOnPin)
                  00016018    0000001c                         : gpio.obj (.text:GPIO_toggleOutputOnPin)
                  00016034    0000001c     sysbios.ae430X : msp430_TaskSupport_asm.obj (.text:_ti_sysbios_family_msp430_TaskSupport_swap__E)
                  00016050    0000001c     empty_pe430X.oe430X (.text:ti_sysbios_BIOS_startFunc__I)
                  0001606c    0000001c     empty_pe430X.oe430X (.text:ti_sysbios_family_msp430_Hwi_Module__startupDone__F)
                  00016088    0000001c     empty_pe430X.oe430X (.text:ti_sysbios_heaps_HeapMem_Object__get__S)
                  000160a4    0000001c     sysbios.ae430X : BIOS.obj (.text:ti_sysbios_knl_Semaphore_reset__E)
                  000160c0    0000001c     ti.targets.msp430.rts430.ae430X : Registry.oe430X (.text:xdc_runtime_Registry_findById__E)
                  000160dc    0000001c                                     : SysMin.oe430X (.text:xdc_runtime_SysMin_Module_startup__E)
                  000160f8    0000001a     ccs-MSP430F5529.lib : wdt_a.obj (.text:WDT_A_hold)
                  00016112    0000001a     empty_pe430X.oe430X (.text:ti_sysbios_BIOS_exitFunc__I)
                  0001612c    0000001a     empty_pe430X.oe430X (.text:ti_sysbios_BIOS_registerRTSLock__I)
                  00016146    0000001a     empty_pe430X.oe430X (.text:ti_sysbios_BIOS_removeRTSLock__I)
                  00016160    0000001a     sysbios.ae430X : BIOS.obj (.text:ti_sysbios_family_msp430_TimestampProvider_get64__E)
                  0001617a    0000001a     empty_pe430X.oe430X (.text:ti_sysbios_knl_Semaphore_Object__destruct__S)
                  00016194    0000001a     ti.uia.loggers.ae430X : LoggerStopMode.oe430X (.text:ti_uia_loggers_LoggerStopMode_isEmpty__E)
                  000161ae    0000001a     ti.targets.msp430.rts430.ae430X : System.oe430X (.text:xdc_runtime_System_vsnprintf__E)
                  000161c8    00000018     main.obj (.text:delay)
                  000161e0    00000018     main.obj (.text:initArray)
                  000161f8    00000018     sysbios.ae430X : BIOS.obj (.text:ti_sysbios_BIOS_setThreadType__E)
                  00016210    00000018     empty_pe430X.oe430X (.text:ti_sysbios_knl_Queue_Object__destruct__S)
                  00016228    00000018     rts430x_lc_rd_eabi.lib : time.obj (.text:time)
                  00016240    00000016                            : memset.obj (.text:memset)
                  00016256    00000016                            : div16u.obj (.text)
                  0001626c    00000016                            : mult16_f5hw.obj (.text)
                  00016282    00000016                            : rand.obj (.text:srand)
                  00016298    00000016     sysbios.ae430X : BIOS.obj (.text:ti_sysbios_knl_Task_enabled__E)
                  000162ae    00000016     ti.targets.msp430.rts430.ae430X : SysMin.oe430X (.text:xdc_runtime_SysMin_exit__E)
                  000162c4    00000016                                     : System.oe430X (.text:xdc_runtime_System_abort__E)
                  000162da    00000014     rts430x_lc_rd_eabi.lib : memcpy.obj (.text:memcpy)
                  000162ee    00000014     empty_pe430X.oe430X (.text:ti_sysbios_knl_Queue_Object__get__S)
                  00016302    00000014     ti.targets.msp430.rts430.ae430X : Memory.oe430X (.text:xdc_runtime_Memory_calloc__E)
                  00016316    00000014     empty_pe430X.oe430X (.text:xdc_runtime_Startup_exec__I)
                  0001632a    00000014     ti.targets.msp430.rts430.ae430X : Text.oe430X (.text:xdc_runtime_Text_ropeText__E)
                  0001633e    00000012     rts430x_lc_rd_eabi.lib : copy_decompress_none.obj (.text:decompress:none:__TI_decompress_none)
                  00016350    00000012     sysbios.ae430X : BIOS.obj (.text:ti_sysbios_gates_GateHwi_leave__E)
                  00016362    00000012                    : BIOS.obj (.text:ti_sysbios_gates_GateMutex_Instance_finalize__E)
                  00016374    00000012                    : BIOS.obj (.text:ti_sysbios_knl_Semaphore_Instance_finalize__E)
                  00016386    00000012     empty_pe430X.oe430X (.text:xdc_runtime_System_aprintf__E)
                  00016398    00000012     ti.targets.msp430.rts430.ae430X : System.oe430X (.text:xdc_runtime_System_exit__E)
                  000163aa    00000012     empty_pe430X.oe430X (.text:xdc_runtime_System_printf__E)
                  000163bc    00000010     sysbios.ae430X : msp430_TaskSupport_asm.obj (.text:_ti_sysbios_family_msp430_TaskSupport_glue)
                  000163cc    00000010                    : BIOS.obj (.text:ti_sysbios_family_msp430_TaskSupport_checkStack__E)
                  000163dc    00000010                    : BIOS.obj (.text:ti_sysbios_hal_Hwi_Module_startup__E)
                  000163ec    00000010     ti.targets.msp430.rts430.ae430X : Error.oe430X (.text:xdc_runtime_Error_init__E)
                  000163fc    00000010     empty_pe430X.oe430X (.text:xdc_runtime_Text_visitRope__I)
                  0001640c    0000000e     rts430x_lc_rd_eabi.lib : strlen.obj (.text:strlen)
                  0001641a    0000000e     sysbios.ae430X : BIOS.obj (.text:ti_sysbios_family_msp430_Timer_getMaxTicks__E)
                  00016428    0000000e                    : BIOS.obj (.text:ti_sysbios_knl_Queue_empty__E)
                  00016436    0000000e                    : BIOS.obj (.text:ti_sysbios_knl_Swi_disable__E)
                  00016444    0000000e                    : BIOS.obj (.text:ti_sysbios_knl_Task_disable__E)
                  00016452    0000000e     ti.targets.msp430.rts430.ae430X : SysMin.oe430X (.text:xdc_runtime_SysMin_ready__E)
                  00016460    0000000c     empty_pe430X.oe430X (.text:.bootCodeSection:ti_catalog_msp430_init_Boot_init)
                  0001646c    0000000c     ti.targets.msp430.rts430.ae430X : Gate.oe430X (.text:xdc_runtime_Gate_leaveSystem__E)
                  00016478    0000000c                                     : Memory.oe430X (.text:xdc_runtime_Memory_free__E)
                  00016484    0000000a     rts430x_lc_rd_eabi.lib : lsl16.obj (.text)
                  0001648e    0000000a     sysbios.ae430X : BIOS.obj (.text:ti_sysbios_BIOS_start__E)
                  00016498    0000000a                    : BIOS.obj (.text:ti_sysbios_family_msp430_Hwi_startup__E)
                  000164a2    0000000a                    : BIOS.obj (.text:ti_sysbios_family_msp430_TimestampProvider_getFreq__E)
                  000164ac    0000000a                    : BIOS.obj (.text:ti_sysbios_gates_GateHwi_enter__E)
                  000164b6    0000000a                    : BIOS.obj (.text:ti_sysbios_knl_Queue_Instance_init__E)
                  000164c0    0000000a                    : BIOS.obj (.text:ti_sysbios_knl_Task_self__E)
                  000164ca    00000008     ti.catalog.msp430.init.ae430X : Boot.oe430X (.text:.bootCodeSection:ti_catalog_msp430_init_Boot_disableWatchdog)
                  000164d2    00000008     ti.targets.msp430.rts430.ae430X : xdc_init.oe430X (.text:__xdc__init)
                  000164da    00000008     sysbios.ae430X : BIOS.obj (.text:ti_sysbios_family_msp430_Hwi_switchFromBootStack__E)
                  000164e2    00000008                    : BIOS.obj (.text:ti_sysbios_family_msp430_Timer_getPeriod__E)
                  000164ea    00000008     ti.targets.msp430.rts430.ae430X : Gate.oe430X (.text:xdc_runtime_Gate_enterSystem__E)
                  000164f2    00000008     empty_pe430X.oe430X (.text:xdc_runtime_IHeap_alloc)
                  000164fa    00000008     empty_pe430X.oe430X (.text:xdc_runtime_IHeap_free)
                  00016502    00000008     ti.targets.msp430.rts430.ae430X : Memory.oe430X (.text:xdc_runtime_Memory_getMaxDefaultTypeAlign__E)
                  0001650a    00000006     rts430x_lc_rd_eabi.lib : _lock.obj (.text:_register_lock)
                  00016510    00000006                            : _lock.obj (.text:_register_unlock)
                  00016516    00000006                            : copy_decompress_rle.obj (.text:decompress:rle24:__TI_decompress_rle24)
                  0001651c    00000006     sysbios.ae430X : BIOS.obj (.text:ti_sysbios_knl_Idle_loop__E)
                  00016522    00000006                    : BIOS.obj (.text:ti_sysbios_knl_Swi_startup__E)
                  00016528    00000006                    : BIOS.obj (.text:ti_sysbios_knl_Task_getEnv__E)
                  0001652e    00000006                    : BIOS.obj (.text:ti_sysbios_knl_Task_setEnv__E)
                  00016534    00000006     ti.uia.loggers.ae430X : LoggerStopMode.oe430X (.text:ti_uia_loggers_LoggerStopMode_getInstanceId__E)
                  0001653a    00000006                           : LoggerStopMode.oe430X (.text:ti_uia_loggers_LoggerStopMode_getMaxLength__E)
                  00016540    00000006     ti.targets.msp430.rts430.ae430X : Error.oe430X (.text:xdc_runtime_Error_getSite__E)
                  00016546    00000004     boot.ae430X : pre_init.oe430X (.text:_system_pre_init)
                  0001654a    00000004     rts430x_lc_rd_eabi.lib : exit.obj (.text:abort)
                  0001654e    00000004     empty_pe430X.oe430X (.text:malloc)
                  00016552    00000004     empty_pe430X.oe430X (.text:ti_sysbios_BIOS_RtsGateProxy_enter__E)
                  00016556    00000004     empty_pe430X.oe430X (.text:ti_sysbios_BIOS_RtsGateProxy_leave__E)
                  0001655a    00000004     empty_pe430X.oe430X (.text:ti_sysbios_family_msp430_TaskSupport_Module__startupDone__S)
                  0001655e    00000004     sysbios.ae430X : BIOS.obj (.text:ti_sysbios_gates_GateHwi_query__E)
                  00016562    00000004                    : BIOS.obj (.text:ti_sysbios_gates_GateMutex_query__E)
                  00016566    00000004     empty_pe430X.oe430X (.text:ti_sysbios_knl_Clock_TimerProxy_getMaxTicks__E)
                  0001656a    00000004     empty_pe430X.oe430X (.text:ti_sysbios_knl_Clock_TimerProxy_getPeriod__E)
                  0001656e    00000004     empty_pe430X.oe430X (.text:ti_sysbios_knl_Queue_destruct)
                  00016572    00000004     empty_pe430X.oe430X (.text:ti_sysbios_knl_Semaphore_destruct)
                  00016576    00000004     sysbios.ae430X : BIOS.obj (.text:ti_sysbios_knl_Task_startup__E)
                  0001657a    00000004     ti.uia.loggers.ae430X : LoggerStopMode.oe430X (.text:ti_uia_loggers_LoggerStopMode_getContents__E)
                  0001657e    00000004     empty_pe430X.oe430X (.text:ti_uia_loggers_LoggerStopMode_getFilterLevel__E)
                  00016582    00000004     ti.uia.loggers.ae430X : LoggerStopMode.oe430X (.text:ti_uia_loggers_LoggerStopMode_getPriority__E)
                  00016586    00000004                           : LoggerStopMode.oe430X (.text:ti_uia_loggers_LoggerStopMode_getTransferType__E)
                  0001658a    00000004     ti.targets.msp430.rts430.ae430X : HeapStd.oe430X (.text:xdc_runtime_HeapStd_isBlocking__E)
                  0001658e    00000004     empty_pe430X.oe430X (.text:xdc_runtime_System_Module_GateProxy_enter__E)
                  00016592    00000004     empty_pe430X.oe430X (.text:xdc_runtime_System_Module_GateProxy_leave__E)
                  00016596    00000004     ti.targets.msp430.rts430.ae430X : System.oe430X (.text:xdc_runtime_System_Module_startup__E)
                  0001659a    00000002     rts430x_lc_rd_eabi.lib : _lock.obj (.text:_nop)
                  0001659c    00000002     empty_pe430X.oe430X (.text:free)
                  0001659e    00000002     empty_pe430X.oe430X (.text:ti_sysbios_BIOS_nullFunc__I)
                  000165a0    00000002     sysbios.ae430X : BIOS.obj (.text:ti_sysbios_gates_GateHwi_Instance_init__E)
                  000165a2    00000002     empty_pe430X.oe430X (.text:ti_uia_loggers_LoggerStopMode_setFilterLevel__E)
                  000165a4    00000002     ti.uia.loggers.ae430X : LoggerStopMode.oe430X (.text:ti_uia_loggers_LoggerStopMode_setPriority__E)


LINKER GENERATED COPY TABLES

__TI_cinit_table @ 00018fd2 records: 3, size/record: 8, table size: 24
	.data: load addr=00018b72, load size=00000448 bytes, run addr=00003424, run size=00000694 bytes, compression=rle
	.bss: load addr=00018fc6, load size=00000006 bytes, run addr=00002400, run size=00001024 bytes, compression=zero_init
	.cio: load addr=00018fcc, load size=00000006 bytes, run addr=00003ab8, run size=00000120 bytes, compression=zero_init


LINKER GENERATED HANDLER TABLE

__TI_handler_table @ 00018fba records: 3, size/record: 4, table size: 12
	index: 0, handler: __TI_zero_init
	index: 1, handler: __TI_decompress_rle24
	index: 2, handler: __TI_decompress_none


GLOBAL SYMBOLS: SORTED ALPHABETICALLY BY Name 

address   name                                                               
-------   ----                                                               
00000700  ADC12CTL0                                                          
00000701  ADC12CTL0_H                                                        
00000700  ADC12CTL0_L                                                        
00000702  ADC12CTL1                                                          
00000703  ADC12CTL1_H                                                        
00000702  ADC12CTL1_L                                                        
00000704  ADC12CTL2                                                          
00000705  ADC12CTL2_H                                                        
00000704  ADC12CTL2_L                                                        
0000070c  ADC12IE                                                            
0000070d  ADC12IE_H                                                          
0000070c  ADC12IE_L                                                          
0000070a  ADC12IFG                                                           
0000070b  ADC12IFG_H                                                         
0000070a  ADC12IFG_L                                                         
0000070e  ADC12IV                                                            
0000070f  ADC12IV_H                                                          
0000070e  ADC12IV_L                                                          
00000710  ADC12MCTL0                                                         
00000711  ADC12MCTL1                                                         
0000071a  ADC12MCTL10                                                        
0000071b  ADC12MCTL11                                                        
0000071c  ADC12MCTL12                                                        
0000071d  ADC12MCTL13                                                        
0000071e  ADC12MCTL14                                                        
0000071f  ADC12MCTL15                                                        
00000712  ADC12MCTL2                                                         
00000713  ADC12MCTL3                                                         
00000714  ADC12MCTL4                                                         
00000715  ADC12MCTL5                                                         
00000716  ADC12MCTL6                                                         
00000717  ADC12MCTL7                                                         
00000718  ADC12MCTL8                                                         
00000719  ADC12MCTL9                                                         
00000720  ADC12MEM0                                                          
00000721  ADC12MEM0_H                                                        
00000720  ADC12MEM0_L                                                        
00000722  ADC12MEM1                                                          
00000734  ADC12MEM10                                                         
00000735  ADC12MEM10_H                                                       
00000734  ADC12MEM10_L                                                       
00000736  ADC12MEM11                                                         
00000737  ADC12MEM11_H                                                       
00000736  ADC12MEM11_L                                                       
00000738  ADC12MEM12                                                         
00000739  ADC12MEM12_H                                                       
00000738  ADC12MEM12_L                                                       
0000073a  ADC12MEM13                                                         
0000073b  ADC12MEM13_H                                                       
0000073a  ADC12MEM13_L                                                       
0000073c  ADC12MEM14                                                         
0000073d  ADC12MEM14_H                                                       
0000073c  ADC12MEM14_L                                                       
0000073e  ADC12MEM15                                                         
0000073f  ADC12MEM15_H                                                       
0000073e  ADC12MEM15_L                                                       
00000723  ADC12MEM1_H                                                        
00000722  ADC12MEM1_L                                                        
00000724  ADC12MEM2                                                          
00000725  ADC12MEM2_H                                                        
00000724  ADC12MEM2_L                                                        
00000726  ADC12MEM3                                                          
00000727  ADC12MEM3_H                                                        
00000726  ADC12MEM3_L                                                        
00000728  ADC12MEM4                                                          
00000729  ADC12MEM4_H                                                        
00000728  ADC12MEM4_L                                                        
0000072a  ADC12MEM5                                                          
0000072b  ADC12MEM5_H                                                        
0000072a  ADC12MEM5_L                                                        
0000072c  ADC12MEM6                                                          
0000072d  ADC12MEM6_H                                                        
0000072c  ADC12MEM6_L                                                        
0000072e  ADC12MEM7                                                          
0000072f  ADC12MEM7_H                                                        
0000072e  ADC12MEM7_L                                                        
00000730  ADC12MEM8                                                          
00000731  ADC12MEM8_H                                                        
00000730  ADC12MEM8_L                                                        
00000732  ADC12MEM9                                                          
00000733  ADC12MEM9_H                                                        
00000732  ADC12MEM9_L                                                        
0001654a  C$$EXIT                                                            
00015752  C$$IO$$                                                            
000008c0  CBCTL0                                                             
000008c1  CBCTL0_H                                                           
000008c0  CBCTL0_L                                                           
000008c2  CBCTL1                                                             
000008c3  CBCTL1_H                                                           
000008c2  CBCTL1_L                                                           
000008c4  CBCTL2                                                             
000008c5  CBCTL2_H                                                           
000008c4  CBCTL2_L                                                           
000008c6  CBCTL3                                                             
000008c7  CBCTL3_H                                                           
000008c6  CBCTL3_L                                                           
000008cc  CBINT                                                              
000008cd  CBINT_H                                                            
000008cc  CBINT_L                                                            
000008ce  CBIV                                                               
00000150  CRCDI                                                              
00000152  CRCDIRB                                                            
00000153  CRCDIRB_H                                                          
00000152  CRCDIRB_L                                                          
00000151  CRCDI_H                                                            
00000150  CRCDI_L                                                            
00000154  CRCINIRES                                                          
00000155  CRCINIRES_H                                                        
00000154  CRCINIRES_L                                                        
00000156  CRCRESR                                                            
00000157  CRCRESR_H                                                          
00000156  CRCRESR_L                                                          
00000510  DMA0CTL                                                            
00000511  DMA0CTL_H                                                          
00000510  DMA0CTL_L                                                          
00000516  DMA0DA                                                             
00000518  DMA0DAH                                                            
00000516  DMA0DAL                                                            
00000512  DMA0SA                                                             
00000514  DMA0SAH                                                            
00000512  DMA0SAL                                                            
0000051a  DMA0SZ                                                             
00000520  DMA1CTL                                                            
00000521  DMA1CTL_H                                                          
00000520  DMA1CTL_L                                                          
00000526  DMA1DA                                                             
00000528  DMA1DAH                                                            
00000526  DMA1DAL                                                            
00000522  DMA1SA                                                             
00000524  DMA1SAH                                                            
00000522  DMA1SAL                                                            
0000052a  DMA1SZ                                                             
00000530  DMA2CTL                                                            
00000531  DMA2CTL_H                                                          
00000530  DMA2CTL_L                                                          
00000536  DMA2DA                                                             
00000538  DMA2DAH                                                            
00000536  DMA2DAL                                                            
00000532  DMA2SA                                                             
00000534  DMA2SAH                                                            
00000532  DMA2SAL                                                            
0000053a  DMA2SZ                                                             
00000500  DMACTL0                                                            
00000501  DMACTL0_H                                                          
00000500  DMACTL0_L                                                          
00000502  DMACTL1                                                            
00000503  DMACTL1_H                                                          
00000502  DMACTL1_L                                                          
00000504  DMACTL2                                                            
00000505  DMACTL2_H                                                          
00000504  DMACTL2_L                                                          
00000506  DMACTL3                                                            
00000507  DMACTL3_H                                                          
00000506  DMACTL3_L                                                          
00000508  DMACTL4                                                            
00000509  DMACTL4_H                                                          
00000508  DMACTL4_L                                                          
0000050e  DMAIV                                                              
0000050f  DMAIV_H                                                            
0000050e  DMAIV_L                                                            
00000140  FCTL1                                                              
00000141  FCTL1_H                                                            
00000140  FCTL1_L                                                            
00000144  FCTL3                                                              
00000145  FCTL3_H                                                            
00000144  FCTL3_L                                                            
00000146  FCTL4                                                              
00000147  FCTL4_H                                                            
00000146  FCTL4_L                                                            
00015bb4  GPIO_setAsOutputPin                                                
00015ffc  GPIO_setOutputLowOnPin                                             
00016018  GPIO_toggleOutputOnPin                                             
00014c8c  HOSTtime                                                           
000147ec  HOSTwrite                                                          
0001879c  IntrinsicsSupport_maxbitTable                                      
000004c4  MAC                                                                
000004da  MAC32H                                                             
000004db  MAC32H_H                                                           
000004da  MAC32H_L                                                           
000004d8  MAC32L                                                             
000004d9  MAC32L_H                                                           
000004d8  MAC32L_L                                                           
000004c6  MACS                                                               
000004de  MACS32H                                                            
000004df  MACS32H_H                                                          
000004de  MACS32H_L                                                          
000004dc  MACS32L                                                            
000004dd  MACS32L_H                                                          
000004dc  MACS32L_L                                                          
000004c7  MACS_H                                                             
000004c6  MACS_L                                                             
000004c5  MAC_H                                                              
000004c4  MAC_L                                                              
000004c0  MPY                                                                
000004ec  MPY32CTL0                                                          
000004ed  MPY32CTL0_H                                                        
000004ec  MPY32CTL0_L                                                        
000004d2  MPY32H                                                             
000004d3  MPY32H_H                                                           
000004d2  MPY32H_L                                                           
000004d0  MPY32L                                                             
000004d1  MPY32L_H                                                           
000004d0  MPY32L_L                                                           
000004c2  MPYS                                                               
000004d6  MPYS32H                                                            
000004d7  MPYS32H_H                                                          
000004d6  MPYS32H_L                                                          
000004d4  MPYS32L                                                            
000004d5  MPYS32L_H                                                          
000004d4  MPYS32L_L                                                          
000004c3  MPYS_H                                                             
000004c2  MPYS_L                                                             
000004c1  MPY_H                                                              
000004c0  MPY_L                                                              
000004c8  OP2                                                                
000004e2  OP2H                                                               
000004e3  OP2H_H                                                             
000004e2  OP2H_L                                                             
000004e0  OP2L                                                               
000004e1  OP2L_H                                                             
000004e0  OP2L_L                                                             
000004c9  OP2_H                                                              
000004c8  OP2_L                                                              
0000020e  P1IV                                                               
0000021e  P2IV                                                               
000001e0  P4MAP01                                                            
000001e1  P4MAP01_H                                                          
000001e0  P4MAP01_L                                                          
000001e2  P4MAP23                                                            
000001e3  P4MAP23_H                                                          
000001e2  P4MAP23_L                                                          
000001e4  P4MAP45                                                            
000001e5  P4MAP45_H                                                          
000001e4  P4MAP45_L                                                          
000001e6  P4MAP67                                                            
000001e7  P4MAP67_H                                                          
000001e6  P4MAP67_L                                                          
00000204  PADIR                                                              
00000205  PADIR_H                                                            
00000204  PADIR_L                                                            
00000208  PADS                                                               
00000209  PADS_H                                                             
00000208  PADS_L                                                             
0000021a  PAIE                                                               
00000218  PAIES                                                              
00000219  PAIES_H                                                            
00000218  PAIES_L                                                            
0000021b  PAIE_H                                                             
0000021a  PAIE_L                                                             
0000021c  PAIFG                                                              
0000021d  PAIFG_H                                                            
0000021c  PAIFG_L                                                            
00000200  PAIN                                                               
00000201  PAIN_H                                                             
00000200  PAIN_L                                                             
00000202  PAOUT                                                              
00000203  PAOUT_H                                                            
00000202  PAOUT_L                                                            
00000206  PAREN                                                              
00000207  PAREN_H                                                            
00000206  PAREN_L                                                            
0000020a  PASEL                                                              
0000020b  PASEL_H                                                            
0000020a  PASEL_L                                                            
00000224  PBDIR                                                              
00000225  PBDIR_H                                                            
00000224  PBDIR_L                                                            
00000228  PBDS                                                               
00000229  PBDS_H                                                             
00000228  PBDS_L                                                             
00000220  PBIN                                                               
00000221  PBIN_H                                                             
00000220  PBIN_L                                                             
00000222  PBOUT                                                              
00000223  PBOUT_H                                                            
00000222  PBOUT_L                                                            
00000226  PBREN                                                              
00000227  PBREN_H                                                            
00000226  PBREN_L                                                            
0000022a  PBSEL                                                              
0000022b  PBSEL_H                                                            
0000022a  PBSEL_L                                                            
00000244  PCDIR                                                              
00000245  PCDIR_H                                                            
00000244  PCDIR_L                                                            
00000248  PCDS                                                               
00000249  PCDS_H                                                             
00000248  PCDS_L                                                             
00000240  PCIN                                                               
00000241  PCIN_H                                                             
00000240  PCIN_L                                                             
00000242  PCOUT                                                              
00000243  PCOUT_H                                                            
00000242  PCOUT_L                                                            
00000246  PCREN                                                              
00000247  PCREN_H                                                            
00000246  PCREN_L                                                            
0000024a  PCSEL                                                              
0000024b  PCSEL_H                                                            
0000024a  PCSEL_L                                                            
00000264  PDDIR                                                              
00000265  PDDIR_H                                                            
00000264  PDDIR_L                                                            
00000268  PDDS                                                               
00000269  PDDS_H                                                             
00000268  PDDS_L                                                             
00000260  PDIN                                                               
00000261  PDIN_H                                                             
00000260  PDIN_L                                                             
00000262  PDOUT                                                              
00000263  PDOUT_H                                                            
00000262  PDOUT_L                                                            
00000266  PDREN                                                              
00000267  PDREN_H                                                            
00000266  PDREN_L                                                            
0000026a  PDSEL                                                              
0000026b  PDSEL_H                                                            
0000026a  PDSEL_L                                                            
00000324  PJDIR                                                              
00000325  PJDIR_H                                                            
00000324  PJDIR_L                                                            
00000328  PJDS                                                               
00000329  PJDS_H                                                             
00000328  PJDS_L                                                             
00000320  PJIN                                                               
00000321  PJIN_H                                                             
00000320  PJIN_L                                                             
00000322  PJOUT                                                              
00000323  PJOUT_H                                                            
00000322  PJOUT_L                                                            
00000326  PJREN                                                              
00000327  PJREN_H                                                            
00000326  PJREN_L                                                            
00000130  PM5CTL0                                                            
00000131  PM5CTL0_H                                                          
00000130  PM5CTL0_L                                                          
000001c2  PMAPCTL                                                            
000001c3  PMAPCTL_H                                                          
000001c2  PMAPCTL_L                                                          
000001c0  PMAPKEYID                                                          
000001c1  PMAPKEYID_H                                                        
000001c0  PMAPKEYID_L                                                        
00000120  PMMCTL0                                                            
00000121  PMMCTL0_H                                                          
00000120  PMMCTL0_L                                                          
00000122  PMMCTL1                                                            
00000123  PMMCTL1_H                                                          
00000122  PMMCTL1_L                                                          
0000012c  PMMIFG                                                             
0000012d  PMMIFG_H                                                           
0000012c  PMMIFG_L                                                           
0000012e  PMMRIE                                                             
0000012f  PMMRIE_H                                                           
0000012e  PMMRIE_L                                                           
00000158  RCCTL0                                                             
00000159  RCCTL0_H                                                           
00000158  RCCTL0_L                                                           
000001b0  REFCTL0                                                            
000001b1  REFCTL0_H                                                          
000001b0  REFCTL0_L                                                          
000004e4  RES0                                                               
000004e5  RES0_H                                                             
000004e4  RES0_L                                                             
000004e6  RES1                                                               
000004e7  RES1_H                                                             
000004e6  RES1_L                                                             
000004e8  RES2                                                               
000004e9  RES2_H                                                             
000004e8  RES2_L                                                             
000004ea  RES3                                                               
000004eb  RES3_H                                                             
000004ea  RES3_L                                                             
000004cc  RESHI                                                              
000004cd  RESHI_H                                                            
000004cc  RESHI_L                                                            
000004ca  RESLO                                                              
000004cb  RESLO_H                                                            
000004ca  RESLO_L                                                            
000004ba  RTCADOWDAY                                                         
000004bb  RTCADOWDAY_H                                                       
000004ba  RTCADOWDAY_L                                                       
000004b8  RTCAMINHR                                                          
000004b9  RTCAMINHR_H                                                        
000004b8  RTCAMINHR_L                                                        
000004a0  RTCCTL01                                                           
000004a1  RTCCTL01_H                                                         
000004a0  RTCCTL01_L                                                         
000004a2  RTCCTL23                                                           
000004a3  RTCCTL23_H                                                         
000004a2  RTCCTL23_L                                                         
000004b4  RTCDATE                                                            
000004b5  RTCDATE_H                                                          
000004b4  RTCDATE_L                                                          
000004ae  RTCIV                                                              
000004ac  RTCPS                                                              
000004a8  RTCPS0CTL                                                          
000004a9  RTCPS0CTL_H                                                        
000004a8  RTCPS0CTL_L                                                        
000004aa  RTCPS1CTL                                                          
000004ab  RTCPS1CTL_H                                                        
000004aa  RTCPS1CTL_L                                                        
000004ad  RTCPS_H                                                            
000004ac  RTCPS_L                                                            
000004b0  RTCTIM0                                                            
000004b1  RTCTIM0_H                                                          
000004b0  RTCTIM0_L                                                          
000004b2  RTCTIM1                                                            
000004b3  RTCTIM1_H                                                          
000004b2  RTCTIM1_L                                                          
000004b6  RTCYEAR                                                            
000004b7  RTCYEAR_H                                                          
000004b6  RTCYEAR_L                                                          
00000100  SFRIE1                                                             
00000101  SFRIE1_H                                                           
00000100  SFRIE1_L                                                           
00000102  SFRIFG1                                                            
00000103  SFRIFG1_H                                                          
00000102  SFRIFG1_L                                                          
00000104  SFRRPCR                                                            
00000105  SFRRPCR_H                                                          
00000104  SFRRPCR_L                                                          
000004ce  SUMEXT                                                             
000004cf  SUMEXT_H                                                           
000004ce  SUMEXT_L                                                           
00000124  SVSMHCTL                                                           
00000125  SVSMHCTL_H                                                         
00000124  SVSMHCTL_L                                                         
00000128  SVSMIO                                                             
00000129  SVSMIO_H                                                           
00000128  SVSMIO_L                                                           
00000126  SVSMLCTL                                                           
00000127  SVSMLCTL_H                                                         
00000126  SVSMLCTL_L                                                         
00000198  SYSBERRIV                                                          
00000199  SYSBERRIV_H                                                        
00000198  SYSBERRIV_L                                                        
00000182  SYSBSLC                                                            
00000183  SYSBSLC_H                                                          
00000182  SYSBSLC_L                                                          
00000180  SYSCTL                                                             
00000181  SYSCTL_H                                                           
00000180  SYSCTL_L                                                           
00000186  SYSJMBC                                                            
00000187  SYSJMBC_H                                                          
00000186  SYSJMBC_L                                                          
00000188  SYSJMBI0                                                           
00000189  SYSJMBI0_H                                                         
00000188  SYSJMBI0_L                                                         
0000018a  SYSJMBI1                                                           
0000018b  SYSJMBI1_H                                                         
0000018a  SYSJMBI1_L                                                         
0000018c  SYSJMBO0                                                           
0000018d  SYSJMBO0_H                                                         
0000018c  SYSJMBO0_L                                                         
0000018e  SYSJMBO1                                                           
0000018f  SYSJMBO1_H                                                         
0000018e  SYSJMBO1_L                                                         
0000019e  SYSRSTIV                                                           
0000019f  SYSRSTIV_H                                                         
0000019e  SYSRSTIV_L                                                         
0000019c  SYSSNIV                                                            
0000019d  SYSSNIV_H                                                          
0000019c  SYSSNIV_L                                                          
0000019a  SYSUNIV                                                            
0000019b  SYSUNIV_H                                                          
0000019a  SYSUNIV_L                                                          
00000352  TA0CCR0                                                            
00000354  TA0CCR1                                                            
00000356  TA0CCR2                                                            
00000358  TA0CCR3                                                            
0000035a  TA0CCR4                                                            
00000342  TA0CCTL0                                                           
00000344  TA0CCTL1                                                           
00000346  TA0CCTL2                                                           
00000348  TA0CCTL3                                                           
0000034a  TA0CCTL4                                                           
00000340  TA0CTL                                                             
00000360  TA0EX0                                                             
0000036e  TA0IV                                                              
00000350  TA0R                                                               
00000392  TA1CCR0                                                            
00000394  TA1CCR1                                                            
00000396  TA1CCR2                                                            
00000382  TA1CCTL0                                                           
00000384  TA1CCTL1                                                           
00000386  TA1CCTL2                                                           
00000380  TA1CTL                                                             
000003a0  TA1EX0                                                             
000003ae  TA1IV                                                              
00000390  TA1R                                                               
00000412  TA2CCR0                                                            
00000414  TA2CCR1                                                            
00000416  TA2CCR2                                                            
00000402  TA2CCTL0                                                           
00000404  TA2CCTL1                                                           
00000406  TA2CCTL2                                                           
00000400  TA2CTL                                                             
00000420  TA2EX0                                                             
0000042e  TA2IV                                                              
00000410  TA2R                                                               
000003d2  TB0CCR0                                                            
000003d4  TB0CCR1                                                            
000003d6  TB0CCR2                                                            
000003d8  TB0CCR3                                                            
000003da  TB0CCR4                                                            
000003dc  TB0CCR5                                                            
000003de  TB0CCR6                                                            
000003c2  TB0CCTL0                                                           
000003c4  TB0CCTL1                                                           
000003c6  TB0CCTL2                                                           
000003c8  TB0CCTL3                                                           
000003ca  TB0CCTL4                                                           
000003cc  TB0CCTL5                                                           
000003ce  TB0CCTL6                                                           
000003c0  TB0CTL                                                             
000003e0  TB0EX0                                                             
000003ee  TB0IV                                                              
000003d0  TB0R                                                               
00003756  TSK_idle                                                           
000005d0  UCA0ABCTL                                                          
000005c6  UCA0BRW                                                            
000005c7  UCA0BRW_H                                                          
000005c6  UCA0BRW_L                                                          
000005c0  UCA0CTLW0                                                          
000005c1  UCA0CTLW0_H                                                        
000005c0  UCA0CTLW0_L                                                        
000005dc  UCA0ICTL                                                           
000005dd  UCA0ICTL_H                                                         
000005dc  UCA0ICTL_L                                                         
000005d2  UCA0IRCTL                                                          
000005d3  UCA0IRCTL_H                                                        
000005d2  UCA0IRCTL_L                                                        
000005de  UCA0IV                                                             
000005c8  UCA0MCTL                                                           
000005cc  UCA0RXBUF                                                          
000005ca  UCA0STAT                                                           
000005ce  UCA0TXBUF                                                          
00000610  UCA1ABCTL                                                          
00000606  UCA1BRW                                                            
00000607  UCA1BRW_H                                                          
00000606  UCA1BRW_L                                                          
00000600  UCA1CTLW0                                                          
00000601  UCA1CTLW0_H                                                        
00000600  UCA1CTLW0_L                                                        
0000061c  UCA1ICTL                                                           
0000061d  UCA1ICTL_H                                                         
0000061c  UCA1ICTL_L                                                         
00000612  UCA1IRCTL                                                          
00000613  UCA1IRCTL_H                                                        
00000612  UCA1IRCTL_L                                                        
0000061e  UCA1IV                                                             
00000608  UCA1MCTL                                                           
0000060c  UCA1RXBUF                                                          
0000060a  UCA1STAT                                                           
0000060e  UCA1TXBUF                                                          
000005e6  UCB0BRW                                                            
000005e7  UCB0BRW_H                                                          
000005e6  UCB0BRW_L                                                          
000005e0  UCB0CTLW0                                                          
000005e1  UCB0CTLW0_H                                                        
000005e0  UCB0CTLW0_L                                                        
000005f0  UCB0I2COA                                                          
000005f1  UCB0I2COA_H                                                        
000005f0  UCB0I2COA_L                                                        
000005f2  UCB0I2CSA                                                          
000005f3  UCB0I2CSA_H                                                        
000005f2  UCB0I2CSA_L                                                        
000005fc  UCB0ICTL                                                           
000005fd  UCB0ICTL_H                                                         
000005fc  UCB0ICTL_L                                                         
000005fe  UCB0IV                                                             
000005ec  UCB0RXBUF                                                          
000005ea  UCB0STAT                                                           
000005ee  UCB0TXBUF                                                          
00000626  UCB1BRW                                                            
00000627  UCB1BRW_H                                                          
00000626  UCB1BRW_L                                                          
00000620  UCB1CTLW0                                                          
00000621  UCB1CTLW0_H                                                        
00000620  UCB1CTLW0_L                                                        
00000630  UCB1I2COA                                                          
00000631  UCB1I2COA_H                                                        
00000630  UCB1I2COA_L                                                        
00000632  UCB1I2CSA                                                          
00000633  UCB1I2CSA_H                                                        
00000632  UCB1I2CSA_L                                                        
0000063c  UCB1ICTL                                                           
0000063d  UCB1ICTL_H                                                         
0000063c  UCB1ICTL_L                                                         
0000063e  UCB1IV                                                             
0000062c  UCB1RXBUF                                                          
0000062a  UCB1STAT                                                           
0000062e  UCB1TXBUF                                                          
00000160  UCSCTL0                                                            
00000161  UCSCTL0_H                                                          
00000160  UCSCTL0_L                                                          
00000162  UCSCTL1                                                            
00000163  UCSCTL1_H                                                          
00000162  UCSCTL1_L                                                          
00000164  UCSCTL2                                                            
00000165  UCSCTL2_H                                                          
00000164  UCSCTL2_L                                                          
00000166  UCSCTL3                                                            
00000167  UCSCTL3_H                                                          
00000166  UCSCTL3_L                                                          
00000168  UCSCTL4                                                            
00000169  UCSCTL4_H                                                          
00000168  UCSCTL4_L                                                          
0000016a  UCSCTL5                                                            
0000016b  UCSCTL5_H                                                          
0000016a  UCSCTL5_L                                                          
0000016c  UCSCTL6                                                            
0000016d  UCSCTL6_H                                                          
0000016c  UCSCTL6_L                                                          
0000016e  UCSCTL7                                                            
0000016f  UCSCTL7_H                                                          
0000016e  UCSCTL7_L                                                          
00000170  UCSCTL8                                                            
00000171  UCSCTL8_H                                                          
00000170  UCSCTL8_L                                                          
000140a2  UCS_initClockSignal                                                
0001326c  UCS_initFLL                                                        
0001578c  UCS_initFLLSettle                                                  
00000902  USBCNF                                                             
00000903  USBCNF_H                                                           
00000902  USBCNF_L                                                           
0000093c  USBCTL                                                             
0000093a  USBFN                                                              
0000093b  USBFN_H                                                            
0000093a  USBFN_L                                                            
0000093f  USBFUNADR                                                          
0000093d  USBIE                                                              
00002378  USBIEP0BUF                                                         
000023c9  USBIEPBBAX_1                                                       
000023d1  USBIEPBBAX_2                                                       
000023d9  USBIEPBBAX_3                                                       
000023e1  USBIEPBBAX_4                                                       
000023e9  USBIEPBBAX_5                                                       
000023f1  USBIEPBBAX_6                                                       
000023f9  USBIEPBBAX_7                                                       
000023cd  USBIEPBBAY_1                                                       
000023d5  USBIEPBBAY_2                                                       
000023dd  USBIEPBBAY_3                                                       
000023e5  USBIEPBBAY_4                                                       
000023ed  USBIEPBBAY_5                                                       
000023f5  USBIEPBBAY_6                                                       
000023fd  USBIEPBBAY_7                                                       
000023ca  USBIEPBCTX_1                                                       
000023d2  USBIEPBCTX_2                                                       
000023da  USBIEPBCTX_3                                                       
000023e2  USBIEPBCTX_4                                                       
000023ea  USBIEPBCTX_5                                                       
000023f2  USBIEPBCTX_6                                                       
000023fa  USBIEPBCTX_7                                                       
000023ce  USBIEPBCTY_1                                                       
000023d6  USBIEPBCTY_2                                                       
000023de  USBIEPBCTY_3                                                       
000023e6  USBIEPBCTY_4                                                       
000023ee  USBIEPBCTY_5                                                       
000023f6  USBIEPBCTY_6                                                       
000023fe  USBIEPBCTY_7                                                       
00000920  USBIEPCNF_0                                                        
000023c8  USBIEPCNF_1                                                        
000023d0  USBIEPCNF_2                                                        
000023d8  USBIEPCNF_3                                                        
000023e0  USBIEPCNF_4                                                        
000023e8  USBIEPCNF_5                                                        
000023f0  USBIEPCNF_6                                                        
000023f8  USBIEPCNF_7                                                        
00000921  USBIEPCNT_0                                                        
0000092e  USBIEPIE                                                           
00000930  USBIEPIFG                                                          
000023cf  USBIEPSIZXY_1                                                      
000023d7  USBIEPSIZXY_2                                                      
000023df  USBIEPSIZXY_3                                                      
000023e7  USBIEPSIZXY_4                                                      
000023ef  USBIEPSIZXY_5                                                      
000023f7  USBIEPSIZXY_6                                                      
000023ff  USBIEPSIZXY_7                                                      
0000093e  USBIFG                                                             
00000900  USBKEYID                                                           
00000901  USBKEYID_H                                                         
00000900  USBKEYID_L                                                         
00000936  USBMAINT                                                           
00000937  USBMAINT_H                                                         
00000936  USBMAINT_L                                                         
00002370  USBOEP0BUF                                                         
00002389  USBOEPBBAX_1                                                       
00002391  USBOEPBBAX_2                                                       
00002399  USBOEPBBAX_3                                                       
000023a1  USBOEPBBAX_4                                                       
000023a9  USBOEPBBAX_5                                                       
000023b1  USBOEPBBAX_6                                                       
000023b9  USBOEPBBAX_7                                                       
0000238d  USBOEPBBAY_1                                                       
00002395  USBOEPBBAY_2                                                       
0000239d  USBOEPBBAY_3                                                       
000023a5  USBOEPBBAY_4                                                       
000023ad  USBOEPBBAY_5                                                       
000023b5  USBOEPBBAY_6                                                       
000023bd  USBOEPBBAY_7                                                       
0000238a  USBOEPBCTX_1                                                       
00002392  USBOEPBCTX_2                                                       
0000239a  USBOEPBCTX_3                                                       
000023a2  USBOEPBCTX_4                                                       
000023aa  USBOEPBCTX_5                                                       
000023b2  USBOEPBCTX_6                                                       
000023ba  USBOEPBCTX_7                                                       
0000238e  USBOEPBCTY_1                                                       
00002396  USBOEPBCTY_2                                                       
0000239e  USBOEPBCTY_3                                                       
000023a6  USBOEPBCTY_4                                                       
000023ae  USBOEPBCTY_5                                                       
000023b6  USBOEPBCTY_6                                                       
000023be  USBOEPBCTY_7                                                       
00000922  USBOEPCNF_0                                                        
00002388  USBOEPCNF_1                                                        
00002390  USBOEPCNF_2                                                        
00002398  USBOEPCNF_3                                                        
000023a0  USBOEPCNF_4                                                        
000023a8  USBOEPCNF_5                                                        
000023b0  USBOEPCNF_6                                                        
000023b8  USBOEPCNF_7                                                        
00000923  USBOEPCNT_0                                                        
0000092f  USBOEPIE                                                           
00000931  USBOEPIFG                                                          
0000238f  USBOEPSIZXY_1                                                      
00002397  USBOEPSIZXY_2                                                      
0000239f  USBOEPSIZXY_3                                                      
000023a7  USBOEPSIZXY_4                                                      
000023af  USBOEPSIZXY_5                                                      
000023b7  USBOEPSIZXY_6                                                      
000023bf  USBOEPSIZXY_7                                                      
00000904  USBPHYCTL                                                          
00000905  USBPHYCTL_H                                                        
00000904  USBPHYCTL_L                                                        
00000910  USBPLLCTL                                                          
00000911  USBPLLCTL_H                                                        
00000910  USBPLLCTL_L                                                        
00000912  USBPLLDIVB                                                         
00000913  USBPLLDIVB_H                                                       
00000912  USBPLLDIVB_L                                                       
00000914  USBPLLIR                                                           
00000915  USBPLLIR_H                                                         
00000914  USBPLLIR_L                                                         
00000908  USBPWRCTL                                                          
00000909  USBPWRCTL_H                                                        
00000908  USBPWRCTL_L                                                        
00001c00  USBSTABUFF                                                         
00002380  USBSUBLK                                                           
0000236f  USBTOPBUFF                                                         
00000938  USBTSREG                                                           
00000939  USBTSREG_H                                                         
00000938  USBTSREG_L                                                         
00000932  USBVECINT                                                          
00000933  USBVECINT_H                                                        
00000932  USBVECINT_L                                                        
0000015c  WDTCTL                                                             
0000015d  WDTCTL_H                                                           
0000015c  WDTCTL_L                                                           
000160f8  WDT_A_hold                                                         
00003ab8  _CIOBUF_                                                           
00000000  __ASM__                                                            
0000006a  __ISA__                                                            
0000007e  __PLAT__                                                           
00004400  __STACK_END                                                        
00000300  __STACK_SIZE                                                       
000000a2  __TARG__                                                           
00018fd2  __TI_CINIT_Base                                                    
00018fea  __TI_CINIT_Limit                                                   
00018fba  __TI_Handler_Table_Base                                            
00018fc6  __TI_Handler_Table_Limit                                           
UNDEFED   __TI_INITARRAY_Base                                                
UNDEFED   __TI_INITARRAY_Limit                                               
00003a94  __TI_cleanup_ptr                                                   
0001633e  __TI_decompress_none                                               
00016516  __TI_decompress_rle24                                              
00003a98  __TI_dtors_ptr                                                     
0000ffd2  __TI_int41                                                         
0000ffd4  __TI_int42                                                         
0000ffd6  __TI_int43                                                         
0000ffd8  __TI_int44                                                         
0000ffda  __TI_int45                                                         
0000ffdc  __TI_int46                                                         
0000ffde  __TI_int47                                                         
0000ffe0  __TI_int48                                                         
0000ffe2  __TI_int49                                                         
0000ffe4  __TI_int50                                                         
0000ffe6  __TI_int51                                                         
0000ffe8  __TI_int52                                                         
0000ffea  __TI_int53                                                         
0000ffec  __TI_int54                                                         
0000ffee  __TI_int55                                                         
0000fff0  __TI_int56                                                         
0000fff2  __TI_int57                                                         
0000fff4  __TI_int58                                                         
0000fff6  __TI_int59                                                         
0000fff8  __TI_int60                                                         
0000fffa  __TI_int61                                                         
0000fffc  __TI_int62                                                         
000157be  __TI_readmsg                                                       
00015720  __TI_writemsg                                                      
00015c78  __TI_zero_init                                                     
000000d0  __TRDR__                                                           
ffffffff  __binit__                                                          
ffffffff  __c_args__                                                         
00015a0a  __mspabi_divi                                                      
00016256  __mspabi_divu                                                      
00014c34  __mspabi_divul                                                     
0001626c  __mspabi_mpyi_f5hw                                                 
00015d96  __mspabi_mpyl_f5hw                                                 
00015a0a  __mspabi_remi                                                      
00016256  __mspabi_remu                                                      
00014c34  __mspabi_remul                                                     
00016484  __mspabi_slli                                                      
0001553c  __mspabi_slll_1                                                    
00015518  __mspabi_slll_10                                                   
00015514  __mspabi_slll_11                                                   
00015510  __mspabi_slll_12                                                   
0001550c  __mspabi_slll_13                                                   
00015508  __mspabi_slll_14                                                   
00015504  __mspabi_slll_15                                                   
00015538  __mspabi_slll_2                                                    
00015534  __mspabi_slll_3                                                    
00015530  __mspabi_slll_4                                                    
0001552c  __mspabi_slll_5                                                    
00015528  __mspabi_slll_6                                                    
00015524  __mspabi_slll_7                                                    
00015520  __mspabi_slll_8                                                    
0001551c  __mspabi_slll_9                                                    
0001557a  __mspabi_srll_1                                                    
00015556  __mspabi_srll_10                                                   
00015552  __mspabi_srll_11                                                   
0001554e  __mspabi_srll_12                                                   
0001554a  __mspabi_srll_13                                                   
00015546  __mspabi_srll_14                                                   
00015542  __mspabi_srll_15                                                   
00015576  __mspabi_srll_2                                                    
00015572  __mspabi_srll_3                                                    
0001556e  __mspabi_srll_4                                                    
0001556a  __mspabi_srll_5                                                    
00015566  __mspabi_srll_6                                                    
00015562  __mspabi_srll_7                                                    
0001555e  __mspabi_srll_8                                                    
0001555a  __mspabi_srll_9                                                    
000164d2  __xdc__init                                                        
0000361c  __xdc__init__addr                                                  
00014710  _auto_init_hold_wdt                                                
00004400  _c_int00_noargs_noexit                                             
00003a9c  _lock                                                              
0001659a  _nop                                                               
0001650a  _register_lock                                                     
00016510  _register_unlock                                                   
0000fffe  _reset_vector                                                      
00004100  _stack                                                             
00016546  _system_pre_init                                                   
000163bc  _ti_sysbios_family_msp430_TaskSupport_glue                         
00016034  _ti_sysbios_family_msp430_TaskSupport_swap__E                      
00003aa0  _unlock                                                            
0001654a  abort                                                              
ffffffff  binit                                                              
00003324  buffer                                                             
000154c6  consumerHandler                                                    
000186b8  consumerTask1                                                      
000186d8  consumerTask2                                                      
00003a8c  count                                                              
000161c8  delay                                                              
000186c8  emptySlots                                                         
000159ae  exit                                                               
0001659c  free                                                               
000186c4  fullSlots                                                          
00013908  hardware_init                                                      
00003a88  in                                                                 
000161e0  initArray                                                          
00013bde  insert_item                                                        
000186d0  ledSrvSchedSem                                                     
000186bc  ledSrvTask                                                         
00015406  ledSrvTaskHandler                                                  
00015c9c  ledToggle                                                          
00015d74  main                                                               
0001654e  malloc                                                             
000162da  memcpy                                                             
00016240  memset                                                             
000186cc  mutex                                                              
00003a8a  out                                                                
000159dc  prepForLedSrv                                                      
00013d30  printErrorMessage                                                  
0001384a  printMessage                                                       
00014ce2  producerHandler                                                    
000186b4  producerTask1                                                      
000186dc  producerTask2                                                      
00015446  rand                                                               
00013b30  remove_item                                                        
000186d4  setLedEnvMutex                                                     
00016282  srand                                                              
0001640c  strlen                                                             
00015074  ti_catalog_msp430_init_Boot_configureDCO                           
000164ca  ti_catalog_msp430_init_Boot_disableWatchdog                        
00016460  ti_catalog_msp430_init_Boot_init                                   
00003424  ti_sysbios_BIOS_Module__state__V                                   
00015f84  ti_sysbios_BIOS_RtsGateProxy_Handle__label__S                      
00015c2c  ti_sysbios_BIOS_RtsGateProxy_Object__delete__S                     
00016552  ti_sysbios_BIOS_RtsGateProxy_enter__E                              
00016556  ti_sysbios_BIOS_RtsGateProxy_leave__E                              
00016562  ti_sysbios_BIOS_RtsGateProxy_query__E                              
00015a8e  ti_sysbios_BIOS_atExitFunc__I                                      
00015bdc  ti_sysbios_BIOS_errorRaiseHook__I                                  
00016112  ti_sysbios_BIOS_exitFunc__I                                        
0001659e  ti_sysbios_BIOS_nullFunc__I                                        
0001612c  ti_sysbios_BIOS_registerRTSLock__I                                 
00016146  ti_sysbios_BIOS_removeRTSLock__I                                   
00015cc0  ti_sysbios_BIOS_rtsLock__I                                         
00015f2a  ti_sysbios_BIOS_rtsUnlock__I                                       
000161f8  ti_sysbios_BIOS_setThreadType__E                                   
00016050  ti_sysbios_BIOS_startFunc__I                                       
0001648e  ti_sysbios_BIOS_start__E                                           
00004446  ti_sysbios_family_msp430_Hwi41                                     
00004448  ti_sysbios_family_msp430_Hwi42                                     
0000444a  ti_sysbios_family_msp430_Hwi43                                     
0000444c  ti_sysbios_family_msp430_Hwi44                                     
0000444e  ti_sysbios_family_msp430_Hwi45                                     
00004450  ti_sysbios_family_msp430_Hwi46                                     
00004452  ti_sysbios_family_msp430_Hwi47                                     
00004454  ti_sysbios_family_msp430_Hwi48                                     
00004456  ti_sysbios_family_msp430_Hwi49                                     
00004458  ti_sysbios_family_msp430_Hwi50                                     
0000445a  ti_sysbios_family_msp430_Hwi51                                     
0000445c  ti_sysbios_family_msp430_Hwi52                                     
00004426  ti_sysbios_family_msp430_Hwi53                                     
000156e8  ti_sysbios_family_msp430_Hwi53_p2                                  
0000445e  ti_sysbios_family_msp430_Hwi54                                     
00004460  ti_sysbios_family_msp430_Hwi55                                     
00004462  ti_sysbios_family_msp430_Hwi56                                     
00004464  ti_sysbios_family_msp430_Hwi57                                     
00004466  ti_sysbios_family_msp430_Hwi58                                     
00004468  ti_sysbios_family_msp430_Hwi59                                     
0000446a  ti_sysbios_family_msp430_Hwi60                                     
0000446c  ti_sysbios_family_msp430_Hwi61                                     
0000446e  ti_sysbios_family_msp430_Hwi62                                     
00003444  ti_sysbios_family_msp430_Hwi_Module__root__V                       
0001606c  ti_sysbios_family_msp430_Hwi_Module__startupDone__F                
0001606c  ti_sysbios_family_msp430_Hwi_Module__startupDone__S                
0000344c  ti_sysbios_family_msp430_Hwi_Module__state__V                      
000142c0  ti_sysbios_family_msp430_Hwi_Module_startup__E                     
00018b14  ti_sysbios_family_msp430_Hwi_Object__count__C                      
00015ab8  ti_sysbios_family_msp430_Hwi_Object__get__S                        
00003a6e  ti_sysbios_family_msp430_Hwi_Object__table__V                      
00014d38  ti_sysbios_family_msp430_Hwi_getStackInfo__E                       
0001893c  ti_sysbios_family_msp430_Hwi_hooks__C                              
000149f4  ti_sysbios_family_msp430_Hwi_postInit__I                           
00016498  ti_sysbios_family_msp430_Hwi_startup__E                            
000164da  ti_sysbios_family_msp430_Hwi_switchFromBootStack__E                
0001655a  ti_sysbios_family_msp430_TaskSupport_Module__startupDone__S        
000144c6  ti_sysbios_family_msp430_TaskSupport_buildTaskStack                
000163cc  ti_sysbios_family_msp430_TaskSupport_checkStack__E                 
000163bc  ti_sysbios_family_msp430_TaskSupport_glue                          
000148be  ti_sysbios_family_msp430_TaskSupport_start__E                      
00016034  ti_sysbios_family_msp430_TaskSupport_swap__E                       
00003a46  ti_sysbios_family_msp430_Timer_Module_State_0_device__A            
00003a5e  ti_sysbios_family_msp430_Timer_Module_State_0_handles__A           
00003454  ti_sysbios_family_msp430_Timer_Module__root__V                     
00015f48  ti_sysbios_family_msp430_Timer_Module__startupDone__F              
00015f48  ti_sysbios_family_msp430_Timer_Module__startupDone__S              
0000345c  ti_sysbios_family_msp430_Timer_Module__state__V                    
00015234  ti_sysbios_family_msp430_Timer_Module_startup__E                   
00003978  ti_sysbios_family_msp430_Timer_Object__table__V                    
0001527a  ti_sysbios_family_msp430_Timer_getCount__E                         
00013f8e  ti_sysbios_family_msp430_Timer_getExpiredCounts__E                 
00014abc  ti_sysbios_family_msp430_Timer_getFreq__E                          
0001641a  ti_sysbios_family_msp430_Timer_getMaxTicks__E                      
000164e2  ti_sysbios_family_msp430_Timer_getPeriod__E                        
00014f86  ti_sysbios_family_msp430_Timer_initDevice__I                       
00018b16  ti_sysbios_family_msp430_Timer_numTimerDevices__C                  
0001462c  ti_sysbios_family_msp430_Timer_periodicStub__E                     
000157f0  ti_sysbios_family_msp430_Timer_postInit__I                         
00014b7c  ti_sysbios_family_msp430_Timer_setNextTick__E                      
00014e3a  ti_sysbios_family_msp430_Timer_start__E                            
00018b18  ti_sysbios_family_msp430_Timer_startupNeeded__C                    
00015158  ti_sysbios_family_msp430_Timer_startup__E                          
00015822  ti_sysbios_family_msp430_Timer_stop__E                             
00018954  ti_sysbios_family_msp430_TimestampProvider_Module__diagsEnabled__C 
00018958  ti_sysbios_family_msp430_TimestampProvider_Module__diagsIncluded__C
0001895c  ti_sysbios_family_msp430_TimestampProvider_Module__diagsMask__C    
00018b1a  ti_sysbios_family_msp430_TimestampProvider_Module__id__C           
00003466  ti_sysbios_family_msp430_TimestampProvider_Module__state__V        
00014018  ti_sysbios_family_msp430_TimestampProvider_Module_startup__E       
000143c6  ti_sysbios_family_msp430_TimestampProvider_get32__E                
00016160  ti_sysbios_family_msp430_TimestampProvider_get64__E                
000164a2  ti_sysbios_family_msp430_TimestampProvider_getFreq__E              
00018b1c  ti_sysbios_family_msp430_TimestampProvider_useClockTimer__C        
00015854  ti_sysbios_family_xxx_Hwi_switchAndRunFunc                         
00015f66  ti_sysbios_gates_GateHwi_Handle__label__S                          
000165a0  ti_sysbios_gates_GateHwi_Instance_init__E                          
00018758  ti_sysbios_gates_GateHwi_Module__FXNS__C                           
0000346e  ti_sysbios_gates_GateHwi_Module__root__V                           
00018814  ti_sysbios_gates_GateHwi_Object__DESC__C                           
000188bc  ti_sysbios_gates_GateHwi_Object__PARAMS__C                         
000152bc  ti_sysbios_gates_GateHwi_Object__create__S                         
00015ce4  ti_sysbios_gates_GateHwi_Object__delete__S                         
00003aa8  ti_sysbios_gates_GateHwi_Object__table__V                          
000164ac  ti_sysbios_gates_GateHwi_enter__E                                  
00016350  ti_sysbios_gates_GateHwi_leave__E                                  
0001655e  ti_sysbios_gates_GateHwi_query__E                                  
00018960  ti_sysbios_gates_GateMutex_A_badContext__C                         
00015f84  ti_sysbios_gates_GateMutex_Handle__label__S                        
00018b1e  ti_sysbios_gates_GateMutex_Instance_State_sem__O                   
00016362  ti_sysbios_gates_GateMutex_Instance_finalize__E                    
00015db8  ti_sysbios_gates_GateMutex_Instance_init__E                        
0001877a  ti_sysbios_gates_GateMutex_Module__FXNS__C                         
00018964  ti_sysbios_gates_GateMutex_Module__diagsEnabled__C                 
00018968  ti_sysbios_gates_GateMutex_Module__diagsIncluded__C                
0001896c  ti_sysbios_gates_GateMutex_Module__diagsMask__C                    
00018b20  ti_sysbios_gates_GateMutex_Module__id__C                           
00003476  ti_sysbios_gates_GateMutex_Module__root__V                         
0001882c  ti_sysbios_gates_GateMutex_Object__DESC__C                         
000188d0  ti_sysbios_gates_GateMutex_Object__PARAMS__C                       
000152fe  ti_sysbios_gates_GateMutex_Object__create__S                       
00015c2c  ti_sysbios_gates_GateMutex_Object__delete__S                       
000039ae  ti_sysbios_gates_GateMutex_Object__table__V                        
00012858  ti_sysbios_gates_GateMutex_enter__E                                
00015dda  ti_sysbios_gates_GateMutex_leave__E                                
00016562  ti_sysbios_gates_GateMutex_query__E                                
00018970  ti_sysbios_hal_Hwi_E_stackOverflow__C                              
0001606c  ti_sysbios_hal_Hwi_HwiProxy_Module__startupDone__S                 
00014d38  ti_sysbios_hal_Hwi_HwiProxy_getStackInfo__E                        
00016498  ti_sysbios_hal_Hwi_HwiProxy_startup__E                             
000164da  ti_sysbios_hal_Hwi_HwiProxy_switchFromBootStack__E                 
00018b22  ti_sysbios_hal_Hwi_Module__id__C                                   
0000347e  ti_sysbios_hal_Hwi_Module__root__V                                 
000163dc  ti_sysbios_hal_Hwi_Module_startup__E                               
000151ec  ti_sysbios_hal_Hwi_checkStack                                      
000155fc  ti_sysbios_hal_Hwi_initStack                                       
00015f84  ti_sysbios_heaps_HeapMem_Module_GateProxy_Handle__label__S         
00015c2c  ti_sysbios_heaps_HeapMem_Module_GateProxy_Object__delete__S        
00016562  ti_sysbios_heaps_HeapMem_Module_GateProxy_query__E                 
00003486  ti_sysbios_heaps_HeapMem_Module__root__V                           
00018b24  ti_sysbios_heaps_HeapMem_Object__count__C                          
00016088  ti_sysbios_heaps_HeapMem_Object__get__S                            
0001469e  ti_sysbios_heaps_HeapMem_init__I                                   
00018974  ti_sysbios_knl_Clock_LM_begin__C                                   
00018978  ti_sysbios_knl_Clock_LM_tick__C                                    
0001897c  ti_sysbios_knl_Clock_LW_delayed__C                                 
00018b26  ti_sysbios_knl_Clock_Module_State_clockQ__O                        
00018980  ti_sysbios_knl_Clock_Module__diagsEnabled__C                       
00018984  ti_sysbios_knl_Clock_Module__diagsIncluded__C                      
00018988  ti_sysbios_knl_Clock_Module__diagsMask__C                          
00018b28  ti_sysbios_knl_Clock_Module__id__C                                 
00018b2a  ti_sysbios_knl_Clock_Module__loggerDefined__C                      
0001898c  ti_sysbios_knl_Clock_Module__loggerFxn1__C                         
00018990  ti_sysbios_knl_Clock_Module__loggerFxn2__C                         
00018994  ti_sysbios_knl_Clock_Module__loggerObj__C                          
0000348e  ti_sysbios_knl_Clock_Module__root__V                               
00003496  ti_sysbios_knl_Clock_Module__state__V                              
00015ae2  ti_sysbios_knl_Clock_Module_startup__E                             
00003a28  ti_sysbios_knl_Clock_Object__table__V                              
00015f48  ti_sysbios_knl_Clock_TimerProxy_Module__startupDone__S             
00016566  ti_sysbios_knl_Clock_TimerProxy_getMaxTicks__E                     
0001656a  ti_sysbios_knl_Clock_TimerProxy_getPeriod__E                       
00015158  ti_sysbios_knl_Clock_TimerProxy_startup__E                         
00015340  ti_sysbios_knl_Clock_addI__E                                       
00015a36  ti_sysbios_knl_Clock_doTick__I                                     
0001412a  ti_sysbios_knl_Clock_logTick__E                                    
00015dfc  ti_sysbios_knl_Clock_startI__E                                     
000119f6  ti_sysbios_knl_Clock_workFunc__E                                   
000034bc  ti_sysbios_knl_Event_Module__root__V                               
00018926  ti_sysbios_knl_Idle_funcList__A                                    
00018942  ti_sysbios_knl_Idle_funcList__C                                    
0001651c  ti_sysbios_knl_Idle_loop__E                                        
00015e1e  ti_sysbios_knl_Idle_run__E                                         
000164b6  ti_sysbios_knl_Queue_Instance_init__E                              
000034c6  ti_sysbios_knl_Queue_Module__root__V                               
00018844  ti_sysbios_knl_Queue_Object__DESC__C                               
000188e4  ti_sysbios_knl_Queue_Object__PARAMS__C                             
00016210  ti_sysbios_knl_Queue_Object__destruct__S                           
000162ee  ti_sysbios_knl_Queue_Object__get__S                                
00015674  ti_sysbios_knl_Queue_construct                                     
0001656e  ti_sysbios_knl_Queue_destruct                                      
00016428  ti_sysbios_knl_Queue_empty__E                                      
0001594e  ti_sysbios_knl_Queue_put__E                                        
00018998  ti_sysbios_knl_Semaphore_A_badContext__C                           
0001899c  ti_sysbios_knl_Semaphore_A_noEvents__C                             
000189a0  ti_sysbios_knl_Semaphore_A_overflow__C                             
000189a4  ti_sysbios_knl_Semaphore_A_pendTaskDisabled__C                     
00018b2c  ti_sysbios_knl_Semaphore_Instance_State_pendQ__O                   
00016374  ti_sysbios_knl_Semaphore_Instance_finalize__E                      
00012c1c  ti_sysbios_knl_Semaphore_Instance_init__E                          
000189a8  ti_sysbios_knl_Semaphore_LM_pend__C                                
000189ac  ti_sysbios_knl_Semaphore_LM_post__C                                
000189b0  ti_sysbios_knl_Semaphore_Module__diagsEnabled__C                   
000189b4  ti_sysbios_knl_Semaphore_Module__diagsIncluded__C                  
000189b8  ti_sysbios_knl_Semaphore_Module__diagsMask__C                      
00018b2e  ti_sysbios_knl_Semaphore_Module__id__C                             
00018b30  ti_sysbios_knl_Semaphore_Module__loggerDefined__C                  
000189bc  ti_sysbios_knl_Semaphore_Module__loggerFxn2__C                     
000189c0  ti_sysbios_knl_Semaphore_Module__loggerFxn4__C                     
000189c4  ti_sysbios_knl_Semaphore_Module__loggerObj__C                      
000034ce  ti_sysbios_knl_Semaphore_Module__root__V                           
0001885c  ti_sysbios_knl_Semaphore_Object__DESC__C                           
000187f8  ti_sysbios_knl_Semaphore_Object__PARAMS__C                         
0001617a  ti_sysbios_knl_Semaphore_Object__destruct__S                       
0000391e  ti_sysbios_knl_Semaphore_Object__table__V                          
00015580  ti_sysbios_knl_Semaphore_construct                                 
00016572  ti_sysbios_knl_Semaphore_destruct                                  
000150c0  ti_sysbios_knl_Semaphore_pendTimeout__I                            
00010000  ti_sysbios_knl_Semaphore_pend__E                                   
000110d0  ti_sysbios_knl_Semaphore_post__E                                   
000160a4  ti_sysbios_knl_Semaphore_reset__E                                  
000189c8  ti_sysbios_knl_Swi_LD_end__C                                       
000189cc  ti_sysbios_knl_Swi_LM_begin__C                                     
000189d0  ti_sysbios_knl_Swi_LM_post__C                                      
0000381e  ti_sysbios_knl_Swi_Module_State_0_readyQ__A                        
000189d4  ti_sysbios_knl_Swi_Module__diagsEnabled__C                         
000189d8  ti_sysbios_knl_Swi_Module__diagsIncluded__C                        
000189dc  ti_sysbios_knl_Swi_Module__diagsMask__C                            
00018b32  ti_sysbios_knl_Swi_Module__id__C                                   
00018b34  ti_sysbios_knl_Swi_Module__loggerDefined__C                        
000189e0  ti_sysbios_knl_Swi_Module__loggerFxn1__C                           
000189e4  ti_sysbios_knl_Swi_Module__loggerFxn4__C                           
000189e8  ti_sysbios_knl_Swi_Module__loggerObj__C                            
000034d6  ti_sysbios_knl_Swi_Module__root__V                                 
000034de  ti_sysbios_knl_Swi_Module__state__V                                
00015c52  ti_sysbios_knl_Swi_Module_startup__E                               
00018b36  ti_sysbios_knl_Swi_Object__count__C                                
00015b0c  ti_sysbios_knl_Swi_Object__get__S                                  
000039e2  ti_sysbios_knl_Swi_Object__table__V                                
00016436  ti_sysbios_knl_Swi_disable__E                                      
00012f7c  ti_sysbios_knl_Swi_post__E                                         
0001307c  ti_sysbios_knl_Swi_restoreHwi__E                                   
00014ee2  ti_sysbios_knl_Swi_restore__E                                      
0001342c  ti_sysbios_knl_Swi_runLoop__I                                      
00011844  ti_sysbios_knl_Swi_run__I                                          
00013a7c  ti_sysbios_knl_Swi_schedule__I                                     
00016522  ti_sysbios_knl_Swi_startup__E                                      
000189ec  ti_sysbios_knl_Task_E_spOutOfBounds__C                             
000189f0  ti_sysbios_knl_Task_E_stackOverflow__C                             
00002400  ti_sysbios_knl_Task_Instance_State_0_stack__A                      
00002600  ti_sysbios_knl_Task_Instance_State_1_stack__A                      
00002800  ti_sysbios_knl_Task_Instance_State_2_stack__A                      
00002a00  ti_sysbios_knl_Task_Instance_State_3_stack__A                      
00002c00  ti_sysbios_knl_Task_Instance_State_4_stack__A                      
00002e00  ti_sysbios_knl_Task_Instance_State_5_stack__A                      
000189f4  ti_sysbios_knl_Task_LD_block__C                                    
000189f8  ti_sysbios_knl_Task_LD_exit__C                                     
000189fc  ti_sysbios_knl_Task_LD_ready__C                                    
00018a00  ti_sysbios_knl_Task_LM_switch__C                                   
00018a04  ti_sysbios_knl_Task_LM_yield__C                                    
00003aac  ti_sysbios_knl_Task_Module_State_0_idleTask__A                     
0000389e  ti_sysbios_knl_Task_Module_State_0_readyQ__A                       
00018b38  ti_sysbios_knl_Task_Module_State_inactiveQ__O                      
00018a08  ti_sysbios_knl_Task_Module__diagsEnabled__C                        
00018a0c  ti_sysbios_knl_Task_Module__diagsIncluded__C                       
00018a10  ti_sysbios_knl_Task_Module__diagsMask__C                           
00018b3a  ti_sysbios_knl_Task_Module__id__C                                  
00018b3c  ti_sysbios_knl_Task_Module__loggerDefined__C                       
00018a14  ti_sysbios_knl_Task_Module__loggerFxn2__C                          
00018a18  ti_sysbios_knl_Task_Module__loggerFxn4__C                          
00018a1c  ti_sysbios_knl_Task_Module__loggerObj__C                           
000034f4  ti_sysbios_knl_Task_Module__root__V                                
000034fe  ti_sysbios_knl_Task_Module__state__V                               
0001498e  ti_sysbios_knl_Task_Module_startup__E                              
00018b3e  ti_sysbios_knl_Task_Object__count__C                               
00015b36  ti_sysbios_knl_Task_Object__get__S                                 
00003620  ti_sysbios_knl_Task_Object__table__V                               
0001655a  ti_sysbios_knl_Task_SupportProxy_Module__startupDone__S            
000163cc  ti_sysbios_knl_Task_SupportProxy_checkStack__E                     
000148be  ti_sysbios_knl_Task_SupportProxy_start__E                          
00016034  ti_sysbios_knl_Task_SupportProxy_swap__E                           
00018a20  ti_sysbios_knl_Task_allBlockedFunc__C                              
000151a2  ti_sysbios_knl_Task_allBlockedFunction__I                          
0001334e  ti_sysbios_knl_Task_blockI__E                                      
00012ae6  ti_sysbios_knl_Task_checkStacks__E                                 
00016444  ti_sysbios_knl_Task_disable__E                                     
00016298  ti_sysbios_knl_Task_enabled__E                                     
00015fa2  ti_sysbios_knl_Task_enter__I                                       
000136b8  ti_sysbios_knl_Task_exit__E                                        
00016528  ti_sysbios_knl_Task_getEnv__E                                      
00018b40  ti_sysbios_knl_Task_initStackFlag__C                               
00018b42  ti_sysbios_knl_Task_numConstructedTasks__C                         
00013c88  ti_sysbios_knl_Task_postInit__I                                    
00014e8e  ti_sysbios_knl_Task_processVitalTaskFlag__I                        
00015e40  ti_sysbios_knl_Task_restoreHwi__E                                  
0001597e  ti_sysbios_knl_Task_restore__E                                     
000125b6  ti_sysbios_knl_Task_schedule__I                                    
000164c0  ti_sysbios_knl_Task_self__E                                        
0001652e  ti_sysbios_knl_Task_setEnv__E                                      
00012304  ti_sysbios_knl_Task_startCore__E                                   
00016576  ti_sysbios_knl_Task_startup__E                                     
0001317c  ti_sysbios_knl_Task_unblockI__E                                    
00015e62  ti_sysbios_knl_Task_unblock__E                                     
00012e70  ti_sysbios_knl_Task_yield__E                                       
00018a24  ti_sysbios_utils_Load_LS_cpuLoad__C                                
00003ab0  ti_sysbios_utils_Load_Module_State_0_runningTask__A                
00003ab4  ti_sysbios_utils_Load_Module_State_0_taskStartTime__A              
00018a28  ti_sysbios_utils_Load_Module__diagsEnabled__C                      
00018a2c  ti_sysbios_utils_Load_Module__diagsIncluded__C                     
00018a30  ti_sysbios_utils_Load_Module__diagsMask__C                         
00018b44  ti_sysbios_utils_Load_Module__id__C                                
00018b46  ti_sysbios_utils_Load_Module__loggerDefined__C                     
00018a34  ti_sysbios_utils_Load_Module__loggerFxn1__C                        
00018a38  ti_sysbios_utils_Load_Module__loggerObj__C                         
0000353a  ti_sysbios_utils_Load_Module__state__V                             
00012d4e  ti_sysbios_utils_Load_idleFxn__E                                   
000141b2  ti_sysbios_utils_Load_logCPULoad__I                                
00018a3c  ti_sysbios_utils_Load_postUpdate__C                                
00014fd6  ti_sysbios_utils_Load_updateCurrentThreadTime__E                   
00018b48  ti_sysbios_utils_Load_updateInIdle__C                              
0001270a  ti_sysbios_utils_Load_updateLoads__E                               
00015a62  ti_sysbios_utils_Load_updateThreadContexts__E                      
0001270a  ti_sysbios_utils_Load_update__E                                    
00018b4a  ti_sysbios_utils_Load_windowInMs__C                                
00015fc0  ti_uia_loggers_LoggerStopMode_Handle__label__S                     
00003300  ti_uia_loggers_LoggerStopMode_Instance_State_0_hdr__A              
00003200  ti_uia_loggers_LoggerStopMode_Instance_State_0_packetArray__A      
00003380  ti_uia_loggers_LoggerStopMode_Instance_State_1_hdr__A              
00003000  ti_uia_loggers_LoggerStopMode_Instance_State_1_packetArray__A      
00003400  ti_uia_loggers_LoggerStopMode_Instance_State_2_hdr__A              
00003100  ti_uia_loggers_LoggerStopMode_Instance_State_2_packetArray__A      
00015d08  ti_uia_loggers_LoggerStopMode_Instance_init__E                     
00018574  ti_uia_loggers_LoggerStopMode_Module__FXNS__C                      
00018a40  ti_uia_loggers_LoggerStopMode_Module__diagsEnabled__C              
00018a44  ti_uia_loggers_LoggerStopMode_Module__diagsIncluded__C             
00018a48  ti_uia_loggers_LoggerStopMode_Module__diagsMask__C                 
00018b4c  ti_uia_loggers_LoggerStopMode_Module__id__C                        
000035cc  ti_uia_loggers_LoggerStopMode_Module__root__V                      
000035d4  ti_uia_loggers_LoggerStopMode_Module__state__V                     
0001510c  ti_uia_loggers_LoggerStopMode_Module_startup__E                    
00018874  ti_uia_loggers_LoggerStopMode_Object__DESC__C                      
000187bc  ti_uia_loggers_LoggerStopMode_Object__PARAMS__C                    
00018b4e  ti_uia_loggers_LoggerStopMode_Object__count__C                     
00015382  ti_uia_loggers_LoggerStopMode_Object__create__S                    
00015d2c  ti_uia_loggers_LoggerStopMode_Object__delete__S                    
00015b60  ti_uia_loggers_LoggerStopMode_Object__get__S                       
00003794  ti_uia_loggers_LoggerStopMode_Object__table__V                     
00015e84  ti_uia_loggers_LoggerStopMode_disable__E                           
00015ea6  ti_uia_loggers_LoggerStopMode_enable__E                            
00013508  ti_uia_loggers_LoggerStopMode_flush__E                             
0001657a  ti_uia_loggers_LoggerStopMode_getContents__E                       
0001657e  ti_uia_loggers_LoggerStopMode_getFilterLevel__E                    
00016534  ti_uia_loggers_LoggerStopMode_getInstanceId__E                     
0001653a  ti_uia_loggers_LoggerStopMode_getMaxLength__E                      
00016582  ti_uia_loggers_LoggerStopMode_getPriority__E                       
00016586  ti_uia_loggers_LoggerStopMode_getTransferType__E                   
00014b1c  ti_uia_loggers_LoggerStopMode_initBuffer__I                        
000135e0  ti_uia_loggers_LoggerStopMode_initQueueDescriptor__E               
00016194  ti_uia_loggers_LoggerStopMode_isEmpty__E                           
00018b50  ti_uia_loggers_LoggerStopMode_isTimestampEnabled__C                
00014d8e  ti_uia_loggers_LoggerStopMode_reset__E                             
000165a2  ti_uia_loggers_LoggerStopMode_setFilterLevel__E                    
000165a4  ti_uia_loggers_LoggerStopMode_setPriority__E                       
00011eb6  ti_uia_loggers_LoggerStopMode_write0__E                            
00011b8e  ti_uia_loggers_LoggerStopMode_write1__E                            
0001168e  ti_uia_loggers_LoggerStopMode_write2__E                            
000112d8  ti_uia_loggers_LoggerStopMode_write4__E                            
00010c20  ti_uia_loggers_LoggerStopMode_write8__E                            
00010e7e  ti_uia_loggers_LoggerStopMode_writeMemoryRange__E                  
00018a4c  ti_uia_runtime_ILoggerSnapshot_Interface__BASE__C                  
00018a50  ti_uia_runtime_IUIATransfer_Interface__BASE__C                     
000035dc  ti_uia_runtime_QueueDescriptor_Module__state__V                    
00013dcc  ti_uia_runtime_QueueDescriptor_addToList__E                        
00003a8e  ti_uia_runtime_QueueDescriptor_gPtrToFirstDescriptor               
00003a92  ti_uia_runtime_QueueDescriptor_gUpdateCount                        
00016228  time                                                               
000186c0  timeSharingClk                                                     
00012e70  tsClockHandler                                                     
00018a54  xdc_runtime_Assert_E_assertFailed__C                               
00014926  xdc_runtime_Assert_raise__I                                        
00018a58  xdc_runtime_Core_A_initializedParams__C                            
00018a5c  xdc_runtime_Core_Module__diagsEnabled__C                           
00018a60  xdc_runtime_Core_Module__diagsIncluded__C                          
00018a64  xdc_runtime_Core_Module__diagsMask__C                              
00018b52  xdc_runtime_Core_Module__id__C                                     
00015886  xdc_runtime_Core_assignLabel__I                                    
00015026  xdc_runtime_Core_assignParams__I                                   
00012034  xdc_runtime_Core_constructObject__I                                
000114c6  xdc_runtime_Core_createObject__I                                   
000145b6  xdc_runtime_Core_deleteObject__I                                   
00018a68  xdc_runtime_Error_E_memory__C                                      
00018a6c  xdc_runtime_Error_Module__diagsEnabled__C                          
00018a70  xdc_runtime_Error_Module__diagsIncluded__C                         
00018a74  xdc_runtime_Error_Module__diagsMask__C                             
00018b54  xdc_runtime_Error_Module__loggerDefined__C                         
00018a78  xdc_runtime_Error_Module__loggerFxn8__C                            
00018a7c  xdc_runtime_Error_Module__loggerObj__C                             
000035e6  xdc_runtime_Error_Module__state__V                                 
00015eea  xdc_runtime_Error_check__E                                         
00016540  xdc_runtime_Error_getSite__E                                       
000163ec  xdc_runtime_Error_init__E                                          
00018b56  xdc_runtime_Error_maxDepth__C                                      
0001245e  xdc_runtime_Error_policyDefault__E                                 
00018a80  xdc_runtime_Error_policyFxn__C                                     
00018b58  xdc_runtime_Error_policy__C                                        
00013efc  xdc_runtime_Error_print__E                                         
00018a84  xdc_runtime_Error_raiseHook__C                                     
00015756  xdc_runtime_Error_raiseX__E                                        
0001453e  xdc_runtime_Error_setX__E                                          
000164ea  xdc_runtime_Gate_enterSystem__E                                    
0001646c  xdc_runtime_Gate_leaveSystem__E                                    
00018a88  xdc_runtime_HeapStd_A_align__C                                     
00018a8c  xdc_runtime_HeapStd_A_invalidTotalFreeSize__C                      
00018a90  xdc_runtime_HeapStd_A_zeroSize__C                                  
00018a94  xdc_runtime_HeapStd_E_noRTSMemory__C                               
00015fde  xdc_runtime_HeapStd_Handle__label__S                               
00011d26  xdc_runtime_HeapStd_Instance_init__E                               
00018732  xdc_runtime_HeapStd_Module__FXNS__C                                
00018a98  xdc_runtime_HeapStd_Module__diagsEnabled__C                        
00018a9c  xdc_runtime_HeapStd_Module__diagsIncluded__C                       
00018aa0  xdc_runtime_HeapStd_Module__diagsMask__C                           
00018b5a  xdc_runtime_HeapStd_Module__id__C                                  
000035e8  xdc_runtime_HeapStd_Module__root__V                                
000035f0  xdc_runtime_HeapStd_Module__state__V                               
0001888c  xdc_runtime_HeapStd_Object__DESC__C                                
000188a4  xdc_runtime_HeapStd_Object__PARAMS__C                              
00014780  xdc_runtime_HeapStd_Object__create__S                              
00015d50  xdc_runtime_HeapStd_Object__delete__S                              
00003a7c  xdc_runtime_HeapStd_Object__table__V                               
000109ae  xdc_runtime_HeapStd_alloc__E                                       
000129a0  xdc_runtime_HeapStd_free__E                                        
00015f0a  xdc_runtime_HeapStd_getStats__E                                    
0001658a  xdc_runtime_HeapStd_isBlocking__E                                  
00018aa4  xdc_runtime_IFilterLogger_Interface__BASE__C                       
00018aa8  xdc_runtime_IGateProvider_Interface__BASE__C                       
00018aac  xdc_runtime_IHeap_Interface__BASE__C                               
00018ab0  xdc_runtime_ILogger_Interface__BASE__C                             
00018ab4  xdc_runtime_IModule_Interface__BASE__C                             
00018ab8  xdc_runtime_Log_L_error__C                                         
00018abc  xdc_runtime_Log_L_info__C                                          
00015f66  xdc_runtime_Main_Module_GateProxy_Handle__label__S                 
00015ce4  xdc_runtime_Main_Module_GateProxy_Object__delete__S                
0001655e  xdc_runtime_Main_Module_GateProxy_query__E                         
00018ac0  xdc_runtime_Main_Module__diagsEnabled__C                           
00018ac4  xdc_runtime_Main_Module__diagsIncluded__C                          
00018ac8  xdc_runtime_Main_Module__diagsMask__C                              
00018b5c  xdc_runtime_Main_Module__id__C                                     
00018b5e  xdc_runtime_Main_Module__loggerDefined__C                          
00018acc  xdc_runtime_Main_Module__loggerFxn4__C                             
00018ad0  xdc_runtime_Main_Module__loggerFxn8__C                             
00018ad4  xdc_runtime_Main_Module__loggerObj__C                              
000035f4  xdc_runtime_Main_Module__root__V                                   
00015fde  xdc_runtime_Memory_HeapProxy_Handle__label__S                      
00015d50  xdc_runtime_Memory_HeapProxy_Object__delete__S                     
000164f2  xdc_runtime_Memory_HeapProxy_alloc__E                              
000164fa  xdc_runtime_Memory_HeapProxy_free__E                               
00018b60  xdc_runtime_Memory_Module__id__C                                   
000035f6  xdc_runtime_Memory_Module__state__V                                
00014446  xdc_runtime_Memory_alloc__E                                        
00016302  xdc_runtime_Memory_calloc__E                                       
00018ad8  xdc_runtime_Memory_defaultHeapInstance__C                          
00016478  xdc_runtime_Memory_free__E                                         
00016502  xdc_runtime_Memory_getMaxDefaultTypeAlign__E                       
00015ec8  xdc_runtime_Memory_valloc__E                                       
000035f8  xdc_runtime_Registry_Module__state__V                              
000160c0  xdc_runtime_Registry_findById__E                                   
000035fe  xdc_runtime_Startup_Module__state__V                               
00000001  xdc_runtime_Startup__EXECFXN__C                                    
00000001  xdc_runtime_Startup__RESETFXN__C                                   
00018adc  xdc_runtime_Startup_execImpl__C                                    
00014f34  xdc_runtime_Startup_exec__E                                        
00016316  xdc_runtime_Startup_exec__I                                        
0001892e  xdc_runtime_Startup_firstFxns__A                                   
00018948  xdc_runtime_Startup_firstFxns__C                                   
0001894e  xdc_runtime_Startup_lastFxns__C                                    
00018b62  xdc_runtime_Startup_maxPasses__C                                   
00016460  xdc_runtime_Startup_reset__I                                       
000188f8  xdc_runtime_Startup_sfxnRts__A                                     
00018ae0  xdc_runtime_Startup_sfxnRts__C                                     
0001870a  xdc_runtime_Startup_sfxnTab__A                                     
00018ae4  xdc_runtime_Startup_sfxnTab__C                                     
0001378a  xdc_runtime_Startup_startMods__I                                   
00003280  xdc_runtime_SysMin_Module_State_0_outbuf__A                        
00003606  xdc_runtime_SysMin_Module__state__V                                
000160dc  xdc_runtime_SysMin_Module_startup__E                               
000158b8  xdc_runtime_SysMin_abort__E                                        
00018b64  xdc_runtime_SysMin_bufSize__C                                      
000162ae  xdc_runtime_SysMin_exit__E                                         
00018b66  xdc_runtime_SysMin_flushAtExit__C                                  
00014a58  xdc_runtime_SysMin_flush__E                                        
00018ae8  xdc_runtime_SysMin_outputFunc__C                                   
00015b8a  xdc_runtime_SysMin_output__I                                       
00014de4  xdc_runtime_SysMin_putch__E                                        
00016452  xdc_runtime_SysMin_ready__E                                        
00015f66  xdc_runtime_System_Module_GateProxy_Handle__label__S               
00015ce4  xdc_runtime_System_Module_GateProxy_Object__delete__S              
0001658e  xdc_runtime_System_Module_GateProxy_enter__E                       
00016592  xdc_runtime_System_Module_GateProxy_leave__E                       
0001655e  xdc_runtime_System_Module_GateProxy_query__E                       
00003a08  xdc_runtime_System_Module_State_0_atexitHandlers__A                
00018aec  xdc_runtime_System_Module__gateObj__C                              
0000360e  xdc_runtime_System_Module__state__V                                
00016596  xdc_runtime_System_Module_startup__E                               
000158b8  xdc_runtime_System_SupportProxy_abort__E                           
000162ae  xdc_runtime_System_SupportProxy_exit__E                            
00014a58  xdc_runtime_System_SupportProxy_flush__E                           
00014de4  xdc_runtime_System_SupportProxy_putch__E                           
00016452  xdc_runtime_System_SupportProxy_ready__E                           
00018af0  xdc_runtime_System_abortFxn__C                                     
0001654a  xdc_runtime_System_abortStd__E                                     
000162c4  xdc_runtime_System_abort__E                                        
00016386  xdc_runtime_System_aprintf__E                                      
000158ea  xdc_runtime_System_aprintf_va__E                                   
000158ea  xdc_runtime_System_aprintf_va__F                                   
000155be  xdc_runtime_System_atexit__E                                       
000158ea  xdc_runtime_System_avprintf__E                                     
000104dc  xdc_runtime_System_doPrint__I                                      
00018af4  xdc_runtime_System_exitFxn__C                                      
000159ae  xdc_runtime_System_exitStd__E                                      
00016398  xdc_runtime_System_exit__E                                         
00018af8  xdc_runtime_System_extendFxn__C                                    
00013e66  xdc_runtime_System_formatNum__I                                    
00018b68  xdc_runtime_System_maxAtexitHandlers__C                            
000121a0  xdc_runtime_System_printfExtend__I                                 
000163aa  xdc_runtime_System_printf__E                                       
0001591c  xdc_runtime_System_printf_va__E                                    
0001591c  xdc_runtime_System_printf_va__F                                    
00015638  xdc_runtime_System_processAtExit__E                                
000156ae  xdc_runtime_System_putchar__I                                      
000161ae  xdc_runtime_System_snprintf_va__E                                  
000161ae  xdc_runtime_System_snprintf_va__F                                  
0001591c  xdc_runtime_System_vprintf__E                                      
000161ae  xdc_runtime_System_vsnprintf__E                                    
00003614  xdc_runtime_Text_Module__state__V                                  
00018b6a  xdc_runtime_Text_charCnt__C                                        
000165a6  xdc_runtime_Text_charTab__A                                        
00018afc  xdc_runtime_Text_charTab__C                                        
00015c04  xdc_runtime_Text_cordText__E                                       
00018b6c  xdc_runtime_Text_isLoaded__C                                       
00018b00  xdc_runtime_Text_nameEmpty__C                                      
00018b04  xdc_runtime_Text_nameStatic__C                                     
00018b08  xdc_runtime_Text_nameUnknown__C                                    
0001848c  xdc_runtime_Text_nodeTab__A                                        
00018b0c  xdc_runtime_Text_nodeTab__C                                        
00015486  xdc_runtime_Text_printVisFxn__I                                    
00014344  xdc_runtime_Text_putLab__E                                         
0001423a  xdc_runtime_Text_putMod__E                                         
000139c4  xdc_runtime_Text_putSite__E                                        
00018b6e  xdc_runtime_Text_registryModsLastId__C                             
0001632a  xdc_runtime_Text_ropeText__E                                       
00018b70  xdc_runtime_Text_unnamedModsLastId__C                              
00014bda  xdc_runtime_Text_visitRope2__I                                     
00018b10  xdc_runtime_Text_visitRopeFxn__C                                   
000163fc  xdc_runtime_Text_visitRope__I                                      
000153c4  xdc_runtime_Text_xprintf__I                                        
000143c6  xdc_runtime_Timestamp_SupportProxy_get32__E                        
00016160  xdc_runtime_Timestamp_SupportProxy_get64__E                        
000164a2  xdc_runtime_Timestamp_SupportProxy_getFreq__E                      


GLOBAL SYMBOLS: SORTED BY Symbol Address 

address   name                                                               
-------   ----                                                               
00000000  __ASM__                                                            
00000001  xdc_runtime_Startup__EXECFXN__C                                    
00000001  xdc_runtime_Startup__RESETFXN__C                                   
0000006a  __ISA__                                                            
0000007e  __PLAT__                                                           
000000a2  __TARG__                                                           
000000d0  __TRDR__                                                           
00000100  SFRIE1                                                             
00000100  SFRIE1_L                                                           
00000101  SFRIE1_H                                                           
00000102  SFRIFG1                                                            
00000102  SFRIFG1_L                                                          
00000103  SFRIFG1_H                                                          
00000104  SFRRPCR                                                            
00000104  SFRRPCR_L                                                          
00000105  SFRRPCR_H                                                          
00000120  PMMCTL0                                                            
00000120  PMMCTL0_L                                                          
00000121  PMMCTL0_H                                                          
00000122  PMMCTL1                                                            
00000122  PMMCTL1_L                                                          
00000123  PMMCTL1_H                                                          
00000124  SVSMHCTL                                                           
00000124  SVSMHCTL_L                                                         
00000125  SVSMHCTL_H                                                         
00000126  SVSMLCTL                                                           
00000126  SVSMLCTL_L                                                         
00000127  SVSMLCTL_H                                                         
00000128  SVSMIO                                                             
00000128  SVSMIO_L                                                           
00000129  SVSMIO_H                                                           
0000012c  PMMIFG                                                             
0000012c  PMMIFG_L                                                           
0000012d  PMMIFG_H                                                           
0000012e  PMMRIE                                                             
0000012e  PMMRIE_L                                                           
0000012f  PMMRIE_H                                                           
00000130  PM5CTL0                                                            
00000130  PM5CTL0_L                                                          
00000131  PM5CTL0_H                                                          
00000140  FCTL1                                                              
00000140  FCTL1_L                                                            
00000141  FCTL1_H                                                            
00000144  FCTL3                                                              
00000144  FCTL3_L                                                            
00000145  FCTL3_H                                                            
00000146  FCTL4                                                              
00000146  FCTL4_L                                                            
00000147  FCTL4_H                                                            
00000150  CRCDI                                                              
00000150  CRCDI_L                                                            
00000151  CRCDI_H                                                            
00000152  CRCDIRB                                                            
00000152  CRCDIRB_L                                                          
00000153  CRCDIRB_H                                                          
00000154  CRCINIRES                                                          
00000154  CRCINIRES_L                                                        
00000155  CRCINIRES_H                                                        
00000156  CRCRESR                                                            
00000156  CRCRESR_L                                                          
00000157  CRCRESR_H                                                          
00000158  RCCTL0                                                             
00000158  RCCTL0_L                                                           
00000159  RCCTL0_H                                                           
0000015c  WDTCTL                                                             
0000015c  WDTCTL_L                                                           
0000015d  WDTCTL_H                                                           
00000160  UCSCTL0                                                            
00000160  UCSCTL0_L                                                          
00000161  UCSCTL0_H                                                          
00000162  UCSCTL1                                                            
00000162  UCSCTL1_L                                                          
00000163  UCSCTL1_H                                                          
00000164  UCSCTL2                                                            
00000164  UCSCTL2_L                                                          
00000165  UCSCTL2_H                                                          
00000166  UCSCTL3                                                            
00000166  UCSCTL3_L                                                          
00000167  UCSCTL3_H                                                          
00000168  UCSCTL4                                                            
00000168  UCSCTL4_L                                                          
00000169  UCSCTL4_H                                                          
0000016a  UCSCTL5                                                            
0000016a  UCSCTL5_L                                                          
0000016b  UCSCTL5_H                                                          
0000016c  UCSCTL6                                                            
0000016c  UCSCTL6_L                                                          
0000016d  UCSCTL6_H                                                          
0000016e  UCSCTL7                                                            
0000016e  UCSCTL7_L                                                          
0000016f  UCSCTL7_H                                                          
00000170  UCSCTL8                                                            
00000170  UCSCTL8_L                                                          
00000171  UCSCTL8_H                                                          
00000180  SYSCTL                                                             
00000180  SYSCTL_L                                                           
00000181  SYSCTL_H                                                           
00000182  SYSBSLC                                                            
00000182  SYSBSLC_L                                                          
00000183  SYSBSLC_H                                                          
00000186  SYSJMBC                                                            
00000186  SYSJMBC_L                                                          
00000187  SYSJMBC_H                                                          
00000188  SYSJMBI0                                                           
00000188  SYSJMBI0_L                                                         
00000189  SYSJMBI0_H                                                         
0000018a  SYSJMBI1                                                           
0000018a  SYSJMBI1_L                                                         
0000018b  SYSJMBI1_H                                                         
0000018c  SYSJMBO0                                                           
0000018c  SYSJMBO0_L                                                         
0000018d  SYSJMBO0_H                                                         
0000018e  SYSJMBO1                                                           
0000018e  SYSJMBO1_L                                                         
0000018f  SYSJMBO1_H                                                         
00000198  SYSBERRIV                                                          
00000198  SYSBERRIV_L                                                        
00000199  SYSBERRIV_H                                                        
0000019a  SYSUNIV                                                            
0000019a  SYSUNIV_L                                                          
0000019b  SYSUNIV_H                                                          
0000019c  SYSSNIV                                                            
0000019c  SYSSNIV_L                                                          
0000019d  SYSSNIV_H                                                          
0000019e  SYSRSTIV                                                           
0000019e  SYSRSTIV_L                                                         
0000019f  SYSRSTIV_H                                                         
000001b0  REFCTL0                                                            
000001b0  REFCTL0_L                                                          
000001b1  REFCTL0_H                                                          
000001c0  PMAPKEYID                                                          
000001c0  PMAPKEYID_L                                                        
000001c1  PMAPKEYID_H                                                        
000001c2  PMAPCTL                                                            
000001c2  PMAPCTL_L                                                          
000001c3  PMAPCTL_H                                                          
000001e0  P4MAP01                                                            
000001e0  P4MAP01_L                                                          
000001e1  P4MAP01_H                                                          
000001e2  P4MAP23                                                            
000001e2  P4MAP23_L                                                          
000001e3  P4MAP23_H                                                          
000001e4  P4MAP45                                                            
000001e4  P4MAP45_L                                                          
000001e5  P4MAP45_H                                                          
000001e6  P4MAP67                                                            
000001e6  P4MAP67_L                                                          
000001e7  P4MAP67_H                                                          
00000200  PAIN                                                               
00000200  PAIN_L                                                             
00000201  PAIN_H                                                             
00000202  PAOUT                                                              
00000202  PAOUT_L                                                            
00000203  PAOUT_H                                                            
00000204  PADIR                                                              
00000204  PADIR_L                                                            
00000205  PADIR_H                                                            
00000206  PAREN                                                              
00000206  PAREN_L                                                            
00000207  PAREN_H                                                            
00000208  PADS                                                               
00000208  PADS_L                                                             
00000209  PADS_H                                                             
0000020a  PASEL                                                              
0000020a  PASEL_L                                                            
0000020b  PASEL_H                                                            
0000020e  P1IV                                                               
00000218  PAIES                                                              
00000218  PAIES_L                                                            
00000219  PAIES_H                                                            
0000021a  PAIE                                                               
0000021a  PAIE_L                                                             
0000021b  PAIE_H                                                             
0000021c  PAIFG                                                              
0000021c  PAIFG_L                                                            
0000021d  PAIFG_H                                                            
0000021e  P2IV                                                               
00000220  PBIN                                                               
00000220  PBIN_L                                                             
00000221  PBIN_H                                                             
00000222  PBOUT                                                              
00000222  PBOUT_L                                                            
00000223  PBOUT_H                                                            
00000224  PBDIR                                                              
00000224  PBDIR_L                                                            
00000225  PBDIR_H                                                            
00000226  PBREN                                                              
00000226  PBREN_L                                                            
00000227  PBREN_H                                                            
00000228  PBDS                                                               
00000228  PBDS_L                                                             
00000229  PBDS_H                                                             
0000022a  PBSEL                                                              
0000022a  PBSEL_L                                                            
0000022b  PBSEL_H                                                            
00000240  PCIN                                                               
00000240  PCIN_L                                                             
00000241  PCIN_H                                                             
00000242  PCOUT                                                              
00000242  PCOUT_L                                                            
00000243  PCOUT_H                                                            
00000244  PCDIR                                                              
00000244  PCDIR_L                                                            
00000245  PCDIR_H                                                            
00000246  PCREN                                                              
00000246  PCREN_L                                                            
00000247  PCREN_H                                                            
00000248  PCDS                                                               
00000248  PCDS_L                                                             
00000249  PCDS_H                                                             
0000024a  PCSEL                                                              
0000024a  PCSEL_L                                                            
0000024b  PCSEL_H                                                            
00000260  PDIN                                                               
00000260  PDIN_L                                                             
00000261  PDIN_H                                                             
00000262  PDOUT                                                              
00000262  PDOUT_L                                                            
00000263  PDOUT_H                                                            
00000264  PDDIR                                                              
00000264  PDDIR_L                                                            
00000265  PDDIR_H                                                            
00000266  PDREN                                                              
00000266  PDREN_L                                                            
00000267  PDREN_H                                                            
00000268  PDDS                                                               
00000268  PDDS_L                                                             
00000269  PDDS_H                                                             
0000026a  PDSEL                                                              
0000026a  PDSEL_L                                                            
0000026b  PDSEL_H                                                            
00000300  __STACK_SIZE                                                       
00000320  PJIN                                                               
00000320  PJIN_L                                                             
00000321  PJIN_H                                                             
00000322  PJOUT                                                              
00000322  PJOUT_L                                                            
00000323  PJOUT_H                                                            
00000324  PJDIR                                                              
00000324  PJDIR_L                                                            
00000325  PJDIR_H                                                            
00000326  PJREN                                                              
00000326  PJREN_L                                                            
00000327  PJREN_H                                                            
00000328  PJDS                                                               
00000328  PJDS_L                                                             
00000329  PJDS_H                                                             
00000340  TA0CTL                                                             
00000342  TA0CCTL0                                                           
00000344  TA0CCTL1                                                           
00000346  TA0CCTL2                                                           
00000348  TA0CCTL3                                                           
0000034a  TA0CCTL4                                                           
00000350  TA0R                                                               
00000352  TA0CCR0                                                            
00000354  TA0CCR1                                                            
00000356  TA0CCR2                                                            
00000358  TA0CCR3                                                            
0000035a  TA0CCR4                                                            
00000360  TA0EX0                                                             
0000036e  TA0IV                                                              
00000380  TA1CTL                                                             
00000382  TA1CCTL0                                                           
00000384  TA1CCTL1                                                           
00000386  TA1CCTL2                                                           
00000390  TA1R                                                               
00000392  TA1CCR0                                                            
00000394  TA1CCR1                                                            
00000396  TA1CCR2                                                            
000003a0  TA1EX0                                                             
000003ae  TA1IV                                                              
000003c0  TB0CTL                                                             
000003c2  TB0CCTL0                                                           
000003c4  TB0CCTL1                                                           
000003c6  TB0CCTL2                                                           
000003c8  TB0CCTL3                                                           
000003ca  TB0CCTL4                                                           
000003cc  TB0CCTL5                                                           
000003ce  TB0CCTL6                                                           
000003d0  TB0R                                                               
000003d2  TB0CCR0                                                            
000003d4  TB0CCR1                                                            
000003d6  TB0CCR2                                                            
000003d8  TB0CCR3                                                            
000003da  TB0CCR4                                                            
000003dc  TB0CCR5                                                            
000003de  TB0CCR6                                                            
000003e0  TB0EX0                                                             
000003ee  TB0IV                                                              
00000400  TA2CTL                                                             
00000402  TA2CCTL0                                                           
00000404  TA2CCTL1                                                           
00000406  TA2CCTL2                                                           
00000410  TA2R                                                               
00000412  TA2CCR0                                                            
00000414  TA2CCR1                                                            
00000416  TA2CCR2                                                            
00000420  TA2EX0                                                             
0000042e  TA2IV                                                              
000004a0  RTCCTL01                                                           
000004a0  RTCCTL01_L                                                         
000004a1  RTCCTL01_H                                                         
000004a2  RTCCTL23                                                           
000004a2  RTCCTL23_L                                                         
000004a3  RTCCTL23_H                                                         
000004a8  RTCPS0CTL                                                          
000004a8  RTCPS0CTL_L                                                        
000004a9  RTCPS0CTL_H                                                        
000004aa  RTCPS1CTL                                                          
000004aa  RTCPS1CTL_L                                                        
000004ab  RTCPS1CTL_H                                                        
000004ac  RTCPS                                                              
000004ac  RTCPS_L                                                            
000004ad  RTCPS_H                                                            
000004ae  RTCIV                                                              
000004b0  RTCTIM0                                                            
000004b0  RTCTIM0_L                                                          
000004b1  RTCTIM0_H                                                          
000004b2  RTCTIM1                                                            
000004b2  RTCTIM1_L                                                          
000004b3  RTCTIM1_H                                                          
000004b4  RTCDATE                                                            
000004b4  RTCDATE_L                                                          
000004b5  RTCDATE_H                                                          
000004b6  RTCYEAR                                                            
000004b6  RTCYEAR_L                                                          
000004b7  RTCYEAR_H                                                          
000004b8  RTCAMINHR                                                          
000004b8  RTCAMINHR_L                                                        
000004b9  RTCAMINHR_H                                                        
000004ba  RTCADOWDAY                                                         
000004ba  RTCADOWDAY_L                                                       
000004bb  RTCADOWDAY_H                                                       
000004c0  MPY                                                                
000004c0  MPY_L                                                              
000004c1  MPY_H                                                              
000004c2  MPYS                                                               
000004c2  MPYS_L                                                             
000004c3  MPYS_H                                                             
000004c4  MAC                                                                
000004c4  MAC_L                                                              
000004c5  MAC_H                                                              
000004c6  MACS                                                               
000004c6  MACS_L                                                             
000004c7  MACS_H                                                             
000004c8  OP2                                                                
000004c8  OP2_L                                                              
000004c9  OP2_H                                                              
000004ca  RESLO                                                              
000004ca  RESLO_L                                                            
000004cb  RESLO_H                                                            
000004cc  RESHI                                                              
000004cc  RESHI_L                                                            
000004cd  RESHI_H                                                            
000004ce  SUMEXT                                                             
000004ce  SUMEXT_L                                                           
000004cf  SUMEXT_H                                                           
000004d0  MPY32L                                                             
000004d0  MPY32L_L                                                           
000004d1  MPY32L_H                                                           
000004d2  MPY32H                                                             
000004d2  MPY32H_L                                                           
000004d3  MPY32H_H                                                           
000004d4  MPYS32L                                                            
000004d4  MPYS32L_L                                                          
000004d5  MPYS32L_H                                                          
000004d6  MPYS32H                                                            
000004d6  MPYS32H_L                                                          
000004d7  MPYS32H_H                                                          
000004d8  MAC32L                                                             
000004d8  MAC32L_L                                                           
000004d9  MAC32L_H                                                           
000004da  MAC32H                                                             
000004da  MAC32H_L                                                           
000004db  MAC32H_H                                                           
000004dc  MACS32L                                                            
000004dc  MACS32L_L                                                          
000004dd  MACS32L_H                                                          
000004de  MACS32H                                                            
000004de  MACS32H_L                                                          
000004df  MACS32H_H                                                          
000004e0  OP2L                                                               
000004e0  OP2L_L                                                             
000004e1  OP2L_H                                                             
000004e2  OP2H                                                               
000004e2  OP2H_L                                                             
000004e3  OP2H_H                                                             
000004e4  RES0                                                               
000004e4  RES0_L                                                             
000004e5  RES0_H                                                             
000004e6  RES1                                                               
000004e6  RES1_L                                                             
000004e7  RES1_H                                                             
000004e8  RES2                                                               
000004e8  RES2_L                                                             
000004e9  RES2_H                                                             
000004ea  RES3                                                               
000004ea  RES3_L                                                             
000004eb  RES3_H                                                             
000004ec  MPY32CTL0                                                          
000004ec  MPY32CTL0_L                                                        
000004ed  MPY32CTL0_H                                                        
00000500  DMACTL0                                                            
00000500  DMACTL0_L                                                          
00000501  DMACTL0_H                                                          
00000502  DMACTL1                                                            
00000502  DMACTL1_L                                                          
00000503  DMACTL1_H                                                          
00000504  DMACTL2                                                            
00000504  DMACTL2_L                                                          
00000505  DMACTL2_H                                                          
00000506  DMACTL3                                                            
00000506  DMACTL3_L                                                          
00000507  DMACTL3_H                                                          
00000508  DMACTL4                                                            
00000508  DMACTL4_L                                                          
00000509  DMACTL4_H                                                          
0000050e  DMAIV                                                              
0000050e  DMAIV_L                                                            
0000050f  DMAIV_H                                                            
00000510  DMA0CTL                                                            
00000510  DMA0CTL_L                                                          
00000511  DMA0CTL_H                                                          
00000512  DMA0SA                                                             
00000512  DMA0SAL                                                            
00000514  DMA0SAH                                                            
00000516  DMA0DA                                                             
00000516  DMA0DAL                                                            
00000518  DMA0DAH                                                            
0000051a  DMA0SZ                                                             
00000520  DMA1CTL                                                            
00000520  DMA1CTL_L                                                          
00000521  DMA1CTL_H                                                          
00000522  DMA1SA                                                             
00000522  DMA1SAL                                                            
00000524  DMA1SAH                                                            
00000526  DMA1DA                                                             
00000526  DMA1DAL                                                            
00000528  DMA1DAH                                                            
0000052a  DMA1SZ                                                             
00000530  DMA2CTL                                                            
00000530  DMA2CTL_L                                                          
00000531  DMA2CTL_H                                                          
00000532  DMA2SA                                                             
00000532  DMA2SAL                                                            
00000534  DMA2SAH                                                            
00000536  DMA2DA                                                             
00000536  DMA2DAL                                                            
00000538  DMA2DAH                                                            
0000053a  DMA2SZ                                                             
000005c0  UCA0CTLW0                                                          
000005c0  UCA0CTLW0_L                                                        
000005c1  UCA0CTLW0_H                                                        
000005c6  UCA0BRW                                                            
000005c6  UCA0BRW_L                                                          
000005c7  UCA0BRW_H                                                          
000005c8  UCA0MCTL                                                           
000005ca  UCA0STAT                                                           
000005cc  UCA0RXBUF                                                          
000005ce  UCA0TXBUF                                                          
000005d0  UCA0ABCTL                                                          
000005d2  UCA0IRCTL                                                          
000005d2  UCA0IRCTL_L                                                        
000005d3  UCA0IRCTL_H                                                        
000005dc  UCA0ICTL                                                           
000005dc  UCA0ICTL_L                                                         
000005dd  UCA0ICTL_H                                                         
000005de  UCA0IV                                                             
000005e0  UCB0CTLW0                                                          
000005e0  UCB0CTLW0_L                                                        
000005e1  UCB0CTLW0_H                                                        
000005e6  UCB0BRW                                                            
000005e6  UCB0BRW_L                                                          
000005e7  UCB0BRW_H                                                          
000005ea  UCB0STAT                                                           
000005ec  UCB0RXBUF                                                          
000005ee  UCB0TXBUF                                                          
000005f0  UCB0I2COA                                                          
000005f0  UCB0I2COA_L                                                        
000005f1  UCB0I2COA_H                                                        
000005f2  UCB0I2CSA                                                          
000005f2  UCB0I2CSA_L                                                        
000005f3  UCB0I2CSA_H                                                        
000005fc  UCB0ICTL                                                           
000005fc  UCB0ICTL_L                                                         
000005fd  UCB0ICTL_H                                                         
000005fe  UCB0IV                                                             
00000600  UCA1CTLW0                                                          
00000600  UCA1CTLW0_L                                                        
00000601  UCA1CTLW0_H                                                        
00000606  UCA1BRW                                                            
00000606  UCA1BRW_L                                                          
00000607  UCA1BRW_H                                                          
00000608  UCA1MCTL                                                           
0000060a  UCA1STAT                                                           
0000060c  UCA1RXBUF                                                          
0000060e  UCA1TXBUF                                                          
00000610  UCA1ABCTL                                                          
00000612  UCA1IRCTL                                                          
00000612  UCA1IRCTL_L                                                        
00000613  UCA1IRCTL_H                                                        
0000061c  UCA1ICTL                                                           
0000061c  UCA1ICTL_L                                                         
0000061d  UCA1ICTL_H                                                         
0000061e  UCA1IV                                                             
00000620  UCB1CTLW0                                                          
00000620  UCB1CTLW0_L                                                        
00000621  UCB1CTLW0_H                                                        
00000626  UCB1BRW                                                            
00000626  UCB1BRW_L                                                          
00000627  UCB1BRW_H                                                          
0000062a  UCB1STAT                                                           
0000062c  UCB1RXBUF                                                          
0000062e  UCB1TXBUF                                                          
00000630  UCB1I2COA                                                          
00000630  UCB1I2COA_L                                                        
00000631  UCB1I2COA_H                                                        
00000632  UCB1I2CSA                                                          
00000632  UCB1I2CSA_L                                                        
00000633  UCB1I2CSA_H                                                        
0000063c  UCB1ICTL                                                           
0000063c  UCB1ICTL_L                                                         
0000063d  UCB1ICTL_H                                                         
0000063e  UCB1IV                                                             
00000700  ADC12CTL0                                                          
00000700  ADC12CTL0_L                                                        
00000701  ADC12CTL0_H                                                        
00000702  ADC12CTL1                                                          
00000702  ADC12CTL1_L                                                        
00000703  ADC12CTL1_H                                                        
00000704  ADC12CTL2                                                          
00000704  ADC12CTL2_L                                                        
00000705  ADC12CTL2_H                                                        
0000070a  ADC12IFG                                                           
0000070a  ADC12IFG_L                                                         
0000070b  ADC12IFG_H                                                         
0000070c  ADC12IE                                                            
0000070c  ADC12IE_L                                                          
0000070d  ADC12IE_H                                                          
0000070e  ADC12IV                                                            
0000070e  ADC12IV_L                                                          
0000070f  ADC12IV_H                                                          
00000710  ADC12MCTL0                                                         
00000711  ADC12MCTL1                                                         
00000712  ADC12MCTL2                                                         
00000713  ADC12MCTL3                                                         
00000714  ADC12MCTL4                                                         
00000715  ADC12MCTL5                                                         
00000716  ADC12MCTL6                                                         
00000717  ADC12MCTL7                                                         
00000718  ADC12MCTL8                                                         
00000719  ADC12MCTL9                                                         
0000071a  ADC12MCTL10                                                        
0000071b  ADC12MCTL11                                                        
0000071c  ADC12MCTL12                                                        
0000071d  ADC12MCTL13                                                        
0000071e  ADC12MCTL14                                                        
0000071f  ADC12MCTL15                                                        
00000720  ADC12MEM0                                                          
00000720  ADC12MEM0_L                                                        
00000721  ADC12MEM0_H                                                        
00000722  ADC12MEM1                                                          
00000722  ADC12MEM1_L                                                        
00000723  ADC12MEM1_H                                                        
00000724  ADC12MEM2                                                          
00000724  ADC12MEM2_L                                                        
00000725  ADC12MEM2_H                                                        
00000726  ADC12MEM3                                                          
00000726  ADC12MEM3_L                                                        
00000727  ADC12MEM3_H                                                        
00000728  ADC12MEM4                                                          
00000728  ADC12MEM4_L                                                        
00000729  ADC12MEM4_H                                                        
0000072a  ADC12MEM5                                                          
0000072a  ADC12MEM5_L                                                        
0000072b  ADC12MEM5_H                                                        
0000072c  ADC12MEM6                                                          
0000072c  ADC12MEM6_L                                                        
0000072d  ADC12MEM6_H                                                        
0000072e  ADC12MEM7                                                          
0000072e  ADC12MEM7_L                                                        
0000072f  ADC12MEM7_H                                                        
00000730  ADC12MEM8                                                          
00000730  ADC12MEM8_L                                                        
00000731  ADC12MEM8_H                                                        
00000732  ADC12MEM9                                                          
00000732  ADC12MEM9_L                                                        
00000733  ADC12MEM9_H                                                        
00000734  ADC12MEM10                                                         
00000734  ADC12MEM10_L                                                       
00000735  ADC12MEM10_H                                                       
00000736  ADC12MEM11                                                         
00000736  ADC12MEM11_L                                                       
00000737  ADC12MEM11_H                                                       
00000738  ADC12MEM12                                                         
00000738  ADC12MEM12_L                                                       
00000739  ADC12MEM12_H                                                       
0000073a  ADC12MEM13                                                         
0000073a  ADC12MEM13_L                                                       
0000073b  ADC12MEM13_H                                                       
0000073c  ADC12MEM14                                                         
0000073c  ADC12MEM14_L                                                       
0000073d  ADC12MEM14_H                                                       
0000073e  ADC12MEM15                                                         
0000073e  ADC12MEM15_L                                                       
0000073f  ADC12MEM15_H                                                       
000008c0  CBCTL0                                                             
000008c0  CBCTL0_L                                                           
000008c1  CBCTL0_H                                                           
000008c2  CBCTL1                                                             
000008c2  CBCTL1_L                                                           
000008c3  CBCTL1_H                                                           
000008c4  CBCTL2                                                             
000008c4  CBCTL2_L                                                           
000008c5  CBCTL2_H                                                           
000008c6  CBCTL3                                                             
000008c6  CBCTL3_L                                                           
000008c7  CBCTL3_H                                                           
000008cc  CBINT                                                              
000008cc  CBINT_L                                                            
000008cd  CBINT_H                                                            
000008ce  CBIV                                                               
00000900  USBKEYID                                                           
00000900  USBKEYID_L                                                         
00000901  USBKEYID_H                                                         
00000902  USBCNF                                                             
00000902  USBCNF_L                                                           
00000903  USBCNF_H                                                           
00000904  USBPHYCTL                                                          
00000904  USBPHYCTL_L                                                        
00000905  USBPHYCTL_H                                                        
00000908  USBPWRCTL                                                          
00000908  USBPWRCTL_L                                                        
00000909  USBPWRCTL_H                                                        
00000910  USBPLLCTL                                                          
00000910  USBPLLCTL_L                                                        
00000911  USBPLLCTL_H                                                        
00000912  USBPLLDIVB                                                         
00000912  USBPLLDIVB_L                                                       
00000913  USBPLLDIVB_H                                                       
00000914  USBPLLIR                                                           
00000914  USBPLLIR_L                                                         
00000915  USBPLLIR_H                                                         
00000920  USBIEPCNF_0                                                        
00000921  USBIEPCNT_0                                                        
00000922  USBOEPCNF_0                                                        
00000923  USBOEPCNT_0                                                        
0000092e  USBIEPIE                                                           
0000092f  USBOEPIE                                                           
00000930  USBIEPIFG                                                          
00000931  USBOEPIFG                                                          
00000932  USBVECINT                                                          
00000932  USBVECINT_L                                                        
00000933  USBVECINT_H                                                        
00000936  USBMAINT                                                           
00000936  USBMAINT_L                                                         
00000937  USBMAINT_H                                                         
00000938  USBTSREG                                                           
00000938  USBTSREG_L                                                         
00000939  USBTSREG_H                                                         
0000093a  USBFN                                                              
0000093a  USBFN_L                                                            
0000093b  USBFN_H                                                            
0000093c  USBCTL                                                             
0000093d  USBIE                                                              
0000093e  USBIFG                                                             
0000093f  USBFUNADR                                                          
00001c00  USBSTABUFF                                                         
0000236f  USBTOPBUFF                                                         
00002370  USBOEP0BUF                                                         
00002378  USBIEP0BUF                                                         
00002380  USBSUBLK                                                           
00002388  USBOEPCNF_1                                                        
00002389  USBOEPBBAX_1                                                       
0000238a  USBOEPBCTX_1                                                       
0000238d  USBOEPBBAY_1                                                       
0000238e  USBOEPBCTY_1                                                       
0000238f  USBOEPSIZXY_1                                                      
00002390  USBOEPCNF_2                                                        
00002391  USBOEPBBAX_2                                                       
00002392  USBOEPBCTX_2                                                       
00002395  USBOEPBBAY_2                                                       
00002396  USBOEPBCTY_2                                                       
00002397  USBOEPSIZXY_2                                                      
00002398  USBOEPCNF_3                                                        
00002399  USBOEPBBAX_3                                                       
0000239a  USBOEPBCTX_3                                                       
0000239d  USBOEPBBAY_3                                                       
0000239e  USBOEPBCTY_3                                                       
0000239f  USBOEPSIZXY_3                                                      
000023a0  USBOEPCNF_4                                                        
000023a1  USBOEPBBAX_4                                                       
000023a2  USBOEPBCTX_4                                                       
000023a5  USBOEPBBAY_4                                                       
000023a6  USBOEPBCTY_4                                                       
000023a7  USBOEPSIZXY_4                                                      
000023a8  USBOEPCNF_5                                                        
000023a9  USBOEPBBAX_5                                                       
000023aa  USBOEPBCTX_5                                                       
000023ad  USBOEPBBAY_5                                                       
000023ae  USBOEPBCTY_5                                                       
000023af  USBOEPSIZXY_5                                                      
000023b0  USBOEPCNF_6                                                        
000023b1  USBOEPBBAX_6                                                       
000023b2  USBOEPBCTX_6                                                       
000023b5  USBOEPBBAY_6                                                       
000023b6  USBOEPBCTY_6                                                       
000023b7  USBOEPSIZXY_6                                                      
000023b8  USBOEPCNF_7                                                        
000023b9  USBOEPBBAX_7                                                       
000023ba  USBOEPBCTX_7                                                       
000023bd  USBOEPBBAY_7                                                       
000023be  USBOEPBCTY_7                                                       
000023bf  USBOEPSIZXY_7                                                      
000023c8  USBIEPCNF_1                                                        
000023c9  USBIEPBBAX_1                                                       
000023ca  USBIEPBCTX_1                                                       
000023cd  USBIEPBBAY_1                                                       
000023ce  USBIEPBCTY_1                                                       
000023cf  USBIEPSIZXY_1                                                      
000023d0  USBIEPCNF_2                                                        
000023d1  USBIEPBBAX_2                                                       
000023d2  USBIEPBCTX_2                                                       
000023d5  USBIEPBBAY_2                                                       
000023d6  USBIEPBCTY_2                                                       
000023d7  USBIEPSIZXY_2                                                      
000023d8  USBIEPCNF_3                                                        
000023d9  USBIEPBBAX_3                                                       
000023da  USBIEPBCTX_3                                                       
000023dd  USBIEPBBAY_3                                                       
000023de  USBIEPBCTY_3                                                       
000023df  USBIEPSIZXY_3                                                      
000023e0  USBIEPCNF_4                                                        
000023e1  USBIEPBBAX_4                                                       
000023e2  USBIEPBCTX_4                                                       
000023e5  USBIEPBBAY_4                                                       
000023e6  USBIEPBCTY_4                                                       
000023e7  USBIEPSIZXY_4                                                      
000023e8  USBIEPCNF_5                                                        
000023e9  USBIEPBBAX_5                                                       
000023ea  USBIEPBCTX_5                                                       
000023ed  USBIEPBBAY_5                                                       
000023ee  USBIEPBCTY_5                                                       
000023ef  USBIEPSIZXY_5                                                      
000023f0  USBIEPCNF_6                                                        
000023f1  USBIEPBBAX_6                                                       
000023f2  USBIEPBCTX_6                                                       
000023f5  USBIEPBBAY_6                                                       
000023f6  USBIEPBCTY_6                                                       
000023f7  USBIEPSIZXY_6                                                      
000023f8  USBIEPCNF_7                                                        
000023f9  USBIEPBBAX_7                                                       
000023fa  USBIEPBCTX_7                                                       
000023fd  USBIEPBBAY_7                                                       
000023fe  USBIEPBCTY_7                                                       
000023ff  USBIEPSIZXY_7                                                      
00002400  ti_sysbios_knl_Task_Instance_State_0_stack__A                      
00002600  ti_sysbios_knl_Task_Instance_State_1_stack__A                      
00002800  ti_sysbios_knl_Task_Instance_State_2_stack__A                      
00002a00  ti_sysbios_knl_Task_Instance_State_3_stack__A                      
00002c00  ti_sysbios_knl_Task_Instance_State_4_stack__A                      
00002e00  ti_sysbios_knl_Task_Instance_State_5_stack__A                      
00003000  ti_uia_loggers_LoggerStopMode_Instance_State_1_packetArray__A      
00003100  ti_uia_loggers_LoggerStopMode_Instance_State_2_packetArray__A      
00003200  ti_uia_loggers_LoggerStopMode_Instance_State_0_packetArray__A      
00003280  xdc_runtime_SysMin_Module_State_0_outbuf__A                        
00003300  ti_uia_loggers_LoggerStopMode_Instance_State_0_hdr__A              
00003324  buffer                                                             
00003380  ti_uia_loggers_LoggerStopMode_Instance_State_1_hdr__A              
00003400  ti_uia_loggers_LoggerStopMode_Instance_State_2_hdr__A              
00003424  ti_sysbios_BIOS_Module__state__V                                   
00003444  ti_sysbios_family_msp430_Hwi_Module__root__V                       
0000344c  ti_sysbios_family_msp430_Hwi_Module__state__V                      
00003454  ti_sysbios_family_msp430_Timer_Module__root__V                     
0000345c  ti_sysbios_family_msp430_Timer_Module__state__V                    
00003466  ti_sysbios_family_msp430_TimestampProvider_Module__state__V        
0000346e  ti_sysbios_gates_GateHwi_Module__root__V                           
00003476  ti_sysbios_gates_GateMutex_Module__root__V                         
0000347e  ti_sysbios_hal_Hwi_Module__root__V                                 
00003486  ti_sysbios_heaps_HeapMem_Module__root__V                           
0000348e  ti_sysbios_knl_Clock_Module__root__V                               
00003496  ti_sysbios_knl_Clock_Module__state__V                              
000034bc  ti_sysbios_knl_Event_Module__root__V                               
000034c6  ti_sysbios_knl_Queue_Module__root__V                               
000034ce  ti_sysbios_knl_Semaphore_Module__root__V                           
000034d6  ti_sysbios_knl_Swi_Module__root__V                                 
000034de  ti_sysbios_knl_Swi_Module__state__V                                
000034f4  ti_sysbios_knl_Task_Module__root__V                                
000034fe  ti_sysbios_knl_Task_Module__state__V                               
0000353a  ti_sysbios_utils_Load_Module__state__V                             
000035cc  ti_uia_loggers_LoggerStopMode_Module__root__V                      
000035d4  ti_uia_loggers_LoggerStopMode_Module__state__V                     
000035dc  ti_uia_runtime_QueueDescriptor_Module__state__V                    
000035e6  xdc_runtime_Error_Module__state__V                                 
000035e8  xdc_runtime_HeapStd_Module__root__V                                
000035f0  xdc_runtime_HeapStd_Module__state__V                               
000035f4  xdc_runtime_Main_Module__root__V                                   
000035f6  xdc_runtime_Memory_Module__state__V                                
000035f8  xdc_runtime_Registry_Module__state__V                              
000035fe  xdc_runtime_Startup_Module__state__V                               
00003606  xdc_runtime_SysMin_Module__state__V                                
0000360e  xdc_runtime_System_Module__state__V                                
00003614  xdc_runtime_Text_Module__state__V                                  
0000361c  __xdc__init__addr                                                  
00003620  ti_sysbios_knl_Task_Object__table__V                               
00003756  TSK_idle                                                           
00003794  ti_uia_loggers_LoggerStopMode_Object__table__V                     
0000381e  ti_sysbios_knl_Swi_Module_State_0_readyQ__A                        
0000389e  ti_sysbios_knl_Task_Module_State_0_readyQ__A                       
0000391e  ti_sysbios_knl_Semaphore_Object__table__V                          
00003978  ti_sysbios_family_msp430_Timer_Object__table__V                    
000039ae  ti_sysbios_gates_GateMutex_Object__table__V                        
000039e2  ti_sysbios_knl_Swi_Object__table__V                                
00003a08  xdc_runtime_System_Module_State_0_atexitHandlers__A                
00003a28  ti_sysbios_knl_Clock_Object__table__V                              
00003a46  ti_sysbios_family_msp430_Timer_Module_State_0_device__A            
00003a5e  ti_sysbios_family_msp430_Timer_Module_State_0_handles__A           
00003a6e  ti_sysbios_family_msp430_Hwi_Object__table__V                      
00003a7c  xdc_runtime_HeapStd_Object__table__V                               
00003a88  in                                                                 
00003a8a  out                                                                
00003a8c  count                                                              
00003a8e  ti_uia_runtime_QueueDescriptor_gPtrToFirstDescriptor               
00003a92  ti_uia_runtime_QueueDescriptor_gUpdateCount                        
00003a94  __TI_cleanup_ptr                                                   
00003a98  __TI_dtors_ptr                                                     
00003a9c  _lock                                                              
00003aa0  _unlock                                                            
00003aa8  ti_sysbios_gates_GateHwi_Object__table__V                          
00003aac  ti_sysbios_knl_Task_Module_State_0_idleTask__A                     
00003ab0  ti_sysbios_utils_Load_Module_State_0_runningTask__A                
00003ab4  ti_sysbios_utils_Load_Module_State_0_taskStartTime__A              
00003ab8  _CIOBUF_                                                           
00004100  _stack                                                             
00004400  __STACK_END                                                        
00004400  _c_int00_noargs_noexit                                             
00004426  ti_sysbios_family_msp430_Hwi53                                     
00004446  ti_sysbios_family_msp430_Hwi41                                     
00004448  ti_sysbios_family_msp430_Hwi42                                     
0000444a  ti_sysbios_family_msp430_Hwi43                                     
0000444c  ti_sysbios_family_msp430_Hwi44                                     
0000444e  ti_sysbios_family_msp430_Hwi45                                     
00004450  ti_sysbios_family_msp430_Hwi46                                     
00004452  ti_sysbios_family_msp430_Hwi47                                     
00004454  ti_sysbios_family_msp430_Hwi48                                     
00004456  ti_sysbios_family_msp430_Hwi49                                     
00004458  ti_sysbios_family_msp430_Hwi50                                     
0000445a  ti_sysbios_family_msp430_Hwi51                                     
0000445c  ti_sysbios_family_msp430_Hwi52                                     
0000445e  ti_sysbios_family_msp430_Hwi54                                     
00004460  ti_sysbios_family_msp430_Hwi55                                     
00004462  ti_sysbios_family_msp430_Hwi56                                     
00004464  ti_sysbios_family_msp430_Hwi57                                     
00004466  ti_sysbios_family_msp430_Hwi58                                     
00004468  ti_sysbios_family_msp430_Hwi59                                     
0000446a  ti_sysbios_family_msp430_Hwi60                                     
0000446c  ti_sysbios_family_msp430_Hwi61                                     
0000446e  ti_sysbios_family_msp430_Hwi62                                     
0000ffd2  __TI_int41                                                         
0000ffd4  __TI_int42                                                         
0000ffd6  __TI_int43                                                         
0000ffd8  __TI_int44                                                         
0000ffda  __TI_int45                                                         
0000ffdc  __TI_int46                                                         
0000ffde  __TI_int47                                                         
0000ffe0  __TI_int48                                                         
0000ffe2  __TI_int49                                                         
0000ffe4  __TI_int50                                                         
0000ffe6  __TI_int51                                                         
0000ffe8  __TI_int52                                                         
0000ffea  __TI_int53                                                         
0000ffec  __TI_int54                                                         
0000ffee  __TI_int55                                                         
0000fff0  __TI_int56                                                         
0000fff2  __TI_int57                                                         
0000fff4  __TI_int58                                                         
0000fff6  __TI_int59                                                         
0000fff8  __TI_int60                                                         
0000fffa  __TI_int61                                                         
0000fffc  __TI_int62                                                         
0000fffe  _reset_vector                                                      
00010000  ti_sysbios_knl_Semaphore_pend__E                                   
000104dc  xdc_runtime_System_doPrint__I                                      
000109ae  xdc_runtime_HeapStd_alloc__E                                       
00010c20  ti_uia_loggers_LoggerStopMode_write8__E                            
00010e7e  ti_uia_loggers_LoggerStopMode_writeMemoryRange__E                  
000110d0  ti_sysbios_knl_Semaphore_post__E                                   
000112d8  ti_uia_loggers_LoggerStopMode_write4__E                            
000114c6  xdc_runtime_Core_createObject__I                                   
0001168e  ti_uia_loggers_LoggerStopMode_write2__E                            
00011844  ti_sysbios_knl_Swi_run__I                                          
000119f6  ti_sysbios_knl_Clock_workFunc__E                                   
00011b8e  ti_uia_loggers_LoggerStopMode_write1__E                            
00011d26  xdc_runtime_HeapStd_Instance_init__E                               
00011eb6  ti_uia_loggers_LoggerStopMode_write0__E                            
00012034  xdc_runtime_Core_constructObject__I                                
000121a0  xdc_runtime_System_printfExtend__I                                 
00012304  ti_sysbios_knl_Task_startCore__E                                   
0001245e  xdc_runtime_Error_policyDefault__E                                 
000125b6  ti_sysbios_knl_Task_schedule__I                                    
0001270a  ti_sysbios_utils_Load_updateLoads__E                               
0001270a  ti_sysbios_utils_Load_update__E                                    
00012858  ti_sysbios_gates_GateMutex_enter__E                                
000129a0  xdc_runtime_HeapStd_free__E                                        
00012ae6  ti_sysbios_knl_Task_checkStacks__E                                 
00012c1c  ti_sysbios_knl_Semaphore_Instance_init__E                          
00012d4e  ti_sysbios_utils_Load_idleFxn__E                                   
00012e70  ti_sysbios_knl_Task_yield__E                                       
00012e70  tsClockHandler                                                     
00012f7c  ti_sysbios_knl_Swi_post__E                                         
0001307c  ti_sysbios_knl_Swi_restoreHwi__E                                   
0001317c  ti_sysbios_knl_Task_unblockI__E                                    
0001326c  UCS_initFLL                                                        
0001334e  ti_sysbios_knl_Task_blockI__E                                      
0001342c  ti_sysbios_knl_Swi_runLoop__I                                      
00013508  ti_uia_loggers_LoggerStopMode_flush__E                             
000135e0  ti_uia_loggers_LoggerStopMode_initQueueDescriptor__E               
000136b8  ti_sysbios_knl_Task_exit__E                                        
0001378a  xdc_runtime_Startup_startMods__I                                   
0001384a  printMessage                                                       
00013908  hardware_init                                                      
000139c4  xdc_runtime_Text_putSite__E                                        
00013a7c  ti_sysbios_knl_Swi_schedule__I                                     
00013b30  remove_item                                                        
00013bde  insert_item                                                        
00013c88  ti_sysbios_knl_Task_postInit__I                                    
00013d30  printErrorMessage                                                  
00013dcc  ti_uia_runtime_QueueDescriptor_addToList__E                        
00013e66  xdc_runtime_System_formatNum__I                                    
00013efc  xdc_runtime_Error_print__E                                         
00013f8e  ti_sysbios_family_msp430_Timer_getExpiredCounts__E                 
00014018  ti_sysbios_family_msp430_TimestampProvider_Module_startup__E       
000140a2  UCS_initClockSignal                                                
0001412a  ti_sysbios_knl_Clock_logTick__E                                    
000141b2  ti_sysbios_utils_Load_logCPULoad__I                                
0001423a  xdc_runtime_Text_putMod__E                                         
000142c0  ti_sysbios_family_msp430_Hwi_Module_startup__E                     
00014344  xdc_runtime_Text_putLab__E                                         
000143c6  ti_sysbios_family_msp430_TimestampProvider_get32__E                
000143c6  xdc_runtime_Timestamp_SupportProxy_get32__E                        
00014446  xdc_runtime_Memory_alloc__E                                        
000144c6  ti_sysbios_family_msp430_TaskSupport_buildTaskStack                
0001453e  xdc_runtime_Error_setX__E                                          
000145b6  xdc_runtime_Core_deleteObject__I                                   
0001462c  ti_sysbios_family_msp430_Timer_periodicStub__E                     
0001469e  ti_sysbios_heaps_HeapMem_init__I                                   
00014710  _auto_init_hold_wdt                                                
00014780  xdc_runtime_HeapStd_Object__create__S                              
000147ec  HOSTwrite                                                          
000148be  ti_sysbios_family_msp430_TaskSupport_start__E                      
000148be  ti_sysbios_knl_Task_SupportProxy_start__E                          
00014926  xdc_runtime_Assert_raise__I                                        
0001498e  ti_sysbios_knl_Task_Module_startup__E                              
000149f4  ti_sysbios_family_msp430_Hwi_postInit__I                           
00014a58  xdc_runtime_SysMin_flush__E                                        
00014a58  xdc_runtime_System_SupportProxy_flush__E                           
00014abc  ti_sysbios_family_msp430_Timer_getFreq__E                          
00014b1c  ti_uia_loggers_LoggerStopMode_initBuffer__I                        
00014b7c  ti_sysbios_family_msp430_Timer_setNextTick__E                      
00014bda  xdc_runtime_Text_visitRope2__I                                     
00014c34  __mspabi_divul                                                     
00014c34  __mspabi_remul                                                     
00014c8c  HOSTtime                                                           
00014ce2  producerHandler                                                    
00014d38  ti_sysbios_family_msp430_Hwi_getStackInfo__E                       
00014d38  ti_sysbios_hal_Hwi_HwiProxy_getStackInfo__E                        
00014d8e  ti_uia_loggers_LoggerStopMode_reset__E                             
00014de4  xdc_runtime_SysMin_putch__E                                        
00014de4  xdc_runtime_System_SupportProxy_putch__E                           
00014e3a  ti_sysbios_family_msp430_Timer_start__E                            
00014e8e  ti_sysbios_knl_Task_processVitalTaskFlag__I                        
00014ee2  ti_sysbios_knl_Swi_restore__E                                      
00014f34  xdc_runtime_Startup_exec__E                                        
00014f86  ti_sysbios_family_msp430_Timer_initDevice__I                       
00014fd6  ti_sysbios_utils_Load_updateCurrentThreadTime__E                   
00015026  xdc_runtime_Core_assignParams__I                                   
00015074  ti_catalog_msp430_init_Boot_configureDCO                           
000150c0  ti_sysbios_knl_Semaphore_pendTimeout__I                            
0001510c  ti_uia_loggers_LoggerStopMode_Module_startup__E                    
00015158  ti_sysbios_family_msp430_Timer_startup__E                          
00015158  ti_sysbios_knl_Clock_TimerProxy_startup__E                         
000151a2  ti_sysbios_knl_Task_allBlockedFunction__I                          
000151ec  ti_sysbios_hal_Hwi_checkStack                                      
00015234  ti_sysbios_family_msp430_Timer_Module_startup__E                   
0001527a  ti_sysbios_family_msp430_Timer_getCount__E                         
000152bc  ti_sysbios_gates_GateHwi_Object__create__S                         
000152fe  ti_sysbios_gates_GateMutex_Object__create__S                       
00015340  ti_sysbios_knl_Clock_addI__E                                       
00015382  ti_uia_loggers_LoggerStopMode_Object__create__S                    
000153c4  xdc_runtime_Text_xprintf__I                                        
00015406  ledSrvTaskHandler                                                  
00015446  rand                                                               
00015486  xdc_runtime_Text_printVisFxn__I                                    
000154c6  consumerHandler                                                    
00015504  __mspabi_slll_15                                                   
00015508  __mspabi_slll_14                                                   
0001550c  __mspabi_slll_13                                                   
00015510  __mspabi_slll_12                                                   
00015514  __mspabi_slll_11                                                   
00015518  __mspabi_slll_10                                                   
0001551c  __mspabi_slll_9                                                    
00015520  __mspabi_slll_8                                                    
00015524  __mspabi_slll_7                                                    
00015528  __mspabi_slll_6                                                    
0001552c  __mspabi_slll_5                                                    
00015530  __mspabi_slll_4                                                    
00015534  __mspabi_slll_3                                                    
00015538  __mspabi_slll_2                                                    
0001553c  __mspabi_slll_1                                                    
00015542  __mspabi_srll_15                                                   
00015546  __mspabi_srll_14                                                   
0001554a  __mspabi_srll_13                                                   
0001554e  __mspabi_srll_12                                                   
00015552  __mspabi_srll_11                                                   
00015556  __mspabi_srll_10                                                   
0001555a  __mspabi_srll_9                                                    
0001555e  __mspabi_srll_8                                                    
00015562  __mspabi_srll_7                                                    
00015566  __mspabi_srll_6                                                    
0001556a  __mspabi_srll_5                                                    
0001556e  __mspabi_srll_4                                                    
00015572  __mspabi_srll_3                                                    
00015576  __mspabi_srll_2                                                    
0001557a  __mspabi_srll_1                                                    
00015580  ti_sysbios_knl_Semaphore_construct                                 
000155be  xdc_runtime_System_atexit__E                                       
000155fc  ti_sysbios_hal_Hwi_initStack                                       
00015638  xdc_runtime_System_processAtExit__E                                
00015674  ti_sysbios_knl_Queue_construct                                     
000156ae  xdc_runtime_System_putchar__I                                      
000156e8  ti_sysbios_family_msp430_Hwi53_p2                                  
00015720  __TI_writemsg                                                      
00015752  C$$IO$$                                                            
00015756  xdc_runtime_Error_raiseX__E                                        
0001578c  UCS_initFLLSettle                                                  
000157be  __TI_readmsg                                                       
000157f0  ti_sysbios_family_msp430_Timer_postInit__I                         
00015822  ti_sysbios_family_msp430_Timer_stop__E                             
00015854  ti_sysbios_family_xxx_Hwi_switchAndRunFunc                         
00015886  xdc_runtime_Core_assignLabel__I                                    
000158b8  xdc_runtime_SysMin_abort__E                                        
000158b8  xdc_runtime_System_SupportProxy_abort__E                           
000158ea  xdc_runtime_System_aprintf_va__E                                   
000158ea  xdc_runtime_System_aprintf_va__F                                   
000158ea  xdc_runtime_System_avprintf__E                                     
0001591c  xdc_runtime_System_printf_va__E                                    
0001591c  xdc_runtime_System_printf_va__F                                    
0001591c  xdc_runtime_System_vprintf__E                                      
0001594e  ti_sysbios_knl_Queue_put__E                                        
0001597e  ti_sysbios_knl_Task_restore__E                                     
000159ae  exit                                                               
000159ae  xdc_runtime_System_exitStd__E                                      
000159dc  prepForLedSrv                                                      
00015a0a  __mspabi_divi                                                      
00015a0a  __mspabi_remi                                                      
00015a36  ti_sysbios_knl_Clock_doTick__I                                     
00015a62  ti_sysbios_utils_Load_updateThreadContexts__E                      
00015a8e  ti_sysbios_BIOS_atExitFunc__I                                      
00015ab8  ti_sysbios_family_msp430_Hwi_Object__get__S                        
00015ae2  ti_sysbios_knl_Clock_Module_startup__E                             
00015b0c  ti_sysbios_knl_Swi_Object__get__S                                  
00015b36  ti_sysbios_knl_Task_Object__get__S                                 
00015b60  ti_uia_loggers_LoggerStopMode_Object__get__S                       
00015b8a  xdc_runtime_SysMin_output__I                                       
00015bb4  GPIO_setAsOutputPin                                                
00015bdc  ti_sysbios_BIOS_errorRaiseHook__I                                  
00015c04  xdc_runtime_Text_cordText__E                                       
00015c2c  ti_sysbios_BIOS_RtsGateProxy_Object__delete__S                     
00015c2c  ti_sysbios_gates_GateMutex_Object__delete__S                       
00015c2c  ti_sysbios_heaps_HeapMem_Module_GateProxy_Object__delete__S        
00015c52  ti_sysbios_knl_Swi_Module_startup__E                               
00015c78  __TI_zero_init                                                     
00015c9c  ledToggle                                                          
00015cc0  ti_sysbios_BIOS_rtsLock__I                                         
00015ce4  ti_sysbios_gates_GateHwi_Object__delete__S                         
00015ce4  xdc_runtime_Main_Module_GateProxy_Object__delete__S                
00015ce4  xdc_runtime_System_Module_GateProxy_Object__delete__S              
00015d08  ti_uia_loggers_LoggerStopMode_Instance_init__E                     
00015d2c  ti_uia_loggers_LoggerStopMode_Object__delete__S                    
00015d50  xdc_runtime_HeapStd_Object__delete__S                              
00015d50  xdc_runtime_Memory_HeapProxy_Object__delete__S                     
00015d74  main                                                               
00015d96  __mspabi_mpyl_f5hw                                                 
00015db8  ti_sysbios_gates_GateMutex_Instance_init__E                        
00015dda  ti_sysbios_gates_GateMutex_leave__E                                
00015dfc  ti_sysbios_knl_Clock_startI__E                                     
00015e1e  ti_sysbios_knl_Idle_run__E                                         
00015e40  ti_sysbios_knl_Task_restoreHwi__E                                  
00015e62  ti_sysbios_knl_Task_unblock__E                                     
00015e84  ti_uia_loggers_LoggerStopMode_disable__E                           
00015ea6  ti_uia_loggers_LoggerStopMode_enable__E                            
00015ec8  xdc_runtime_Memory_valloc__E                                       
00015eea  xdc_runtime_Error_check__E                                         
00015f0a  xdc_runtime_HeapStd_getStats__E                                    
00015f2a  ti_sysbios_BIOS_rtsUnlock__I                                       
00015f48  ti_sysbios_family_msp430_Timer_Module__startupDone__F              
00015f48  ti_sysbios_family_msp430_Timer_Module__startupDone__S              
00015f48  ti_sysbios_knl_Clock_TimerProxy_Module__startupDone__S             
00015f66  ti_sysbios_gates_GateHwi_Handle__label__S                          
00015f66  xdc_runtime_Main_Module_GateProxy_Handle__label__S                 
00015f66  xdc_runtime_System_Module_GateProxy_Handle__label__S               
00015f84  ti_sysbios_BIOS_RtsGateProxy_Handle__label__S                      
00015f84  ti_sysbios_gates_GateMutex_Handle__label__S                        
00015f84  ti_sysbios_heaps_HeapMem_Module_GateProxy_Handle__label__S         
00015fa2  ti_sysbios_knl_Task_enter__I                                       
00015fc0  ti_uia_loggers_LoggerStopMode_Handle__label__S                     
00015fde  xdc_runtime_HeapStd_Handle__label__S                               
00015fde  xdc_runtime_Memory_HeapProxy_Handle__label__S                      
00015ffc  GPIO_setOutputLowOnPin                                             
00016018  GPIO_toggleOutputOnPin                                             
00016034  _ti_sysbios_family_msp430_TaskSupport_swap__E                      
00016034  ti_sysbios_family_msp430_TaskSupport_swap__E                       
00016034  ti_sysbios_knl_Task_SupportProxy_swap__E                           
00016050  ti_sysbios_BIOS_startFunc__I                                       
0001606c  ti_sysbios_family_msp430_Hwi_Module__startupDone__F                
0001606c  ti_sysbios_family_msp430_Hwi_Module__startupDone__S                
0001606c  ti_sysbios_hal_Hwi_HwiProxy_Module__startupDone__S                 
00016088  ti_sysbios_heaps_HeapMem_Object__get__S                            
000160a4  ti_sysbios_knl_Semaphore_reset__E                                  
000160c0  xdc_runtime_Registry_findById__E                                   
000160dc  xdc_runtime_SysMin_Module_startup__E                               
000160f8  WDT_A_hold                                                         
00016112  ti_sysbios_BIOS_exitFunc__I                                        
0001612c  ti_sysbios_BIOS_registerRTSLock__I                                 
00016146  ti_sysbios_BIOS_removeRTSLock__I                                   
00016160  ti_sysbios_family_msp430_TimestampProvider_get64__E                
00016160  xdc_runtime_Timestamp_SupportProxy_get64__E                        
0001617a  ti_sysbios_knl_Semaphore_Object__destruct__S                       
00016194  ti_uia_loggers_LoggerStopMode_isEmpty__E                           
000161ae  xdc_runtime_System_snprintf_va__E                                  
000161ae  xdc_runtime_System_snprintf_va__F                                  
000161ae  xdc_runtime_System_vsnprintf__E                                    
000161c8  delay                                                              
000161e0  initArray                                                          
000161f8  ti_sysbios_BIOS_setThreadType__E                                   
00016210  ti_sysbios_knl_Queue_Object__destruct__S                           
00016228  time                                                               
00016240  memset                                                             
00016256  __mspabi_divu                                                      
00016256  __mspabi_remu                                                      
0001626c  __mspabi_mpyi_f5hw                                                 
00016282  srand                                                              
00016298  ti_sysbios_knl_Task_enabled__E                                     
000162ae  xdc_runtime_SysMin_exit__E                                         
000162ae  xdc_runtime_System_SupportProxy_exit__E                            
000162c4  xdc_runtime_System_abort__E                                        
000162da  memcpy                                                             
000162ee  ti_sysbios_knl_Queue_Object__get__S                                
00016302  xdc_runtime_Memory_calloc__E                                       
00016316  xdc_runtime_Startup_exec__I                                        
0001632a  xdc_runtime_Text_ropeText__E                                       
0001633e  __TI_decompress_none                                               
00016350  ti_sysbios_gates_GateHwi_leave__E                                  
00016362  ti_sysbios_gates_GateMutex_Instance_finalize__E                    
00016374  ti_sysbios_knl_Semaphore_Instance_finalize__E                      
00016386  xdc_runtime_System_aprintf__E                                      
00016398  xdc_runtime_System_exit__E                                         
000163aa  xdc_runtime_System_printf__E                                       
000163bc  _ti_sysbios_family_msp430_TaskSupport_glue                         
000163bc  ti_sysbios_family_msp430_TaskSupport_glue                          
000163cc  ti_sysbios_family_msp430_TaskSupport_checkStack__E                 
000163cc  ti_sysbios_knl_Task_SupportProxy_checkStack__E                     
000163dc  ti_sysbios_hal_Hwi_Module_startup__E                               
000163ec  xdc_runtime_Error_init__E                                          
000163fc  xdc_runtime_Text_visitRope__I                                      
0001640c  strlen                                                             
0001641a  ti_sysbios_family_msp430_Timer_getMaxTicks__E                      
00016428  ti_sysbios_knl_Queue_empty__E                                      
00016436  ti_sysbios_knl_Swi_disable__E                                      
00016444  ti_sysbios_knl_Task_disable__E                                     
00016452  xdc_runtime_SysMin_ready__E                                        
00016452  xdc_runtime_System_SupportProxy_ready__E                           
00016460  ti_catalog_msp430_init_Boot_init                                   
00016460  xdc_runtime_Startup_reset__I                                       
0001646c  xdc_runtime_Gate_leaveSystem__E                                    
00016478  xdc_runtime_Memory_free__E                                         
00016484  __mspabi_slli                                                      
0001648e  ti_sysbios_BIOS_start__E                                           
00016498  ti_sysbios_family_msp430_Hwi_startup__E                            
00016498  ti_sysbios_hal_Hwi_HwiProxy_startup__E                             
000164a2  ti_sysbios_family_msp430_TimestampProvider_getFreq__E              
000164a2  xdc_runtime_Timestamp_SupportProxy_getFreq__E                      
000164ac  ti_sysbios_gates_GateHwi_enter__E                                  
000164b6  ti_sysbios_knl_Queue_Instance_init__E                              
000164c0  ti_sysbios_knl_Task_self__E                                        
000164ca  ti_catalog_msp430_init_Boot_disableWatchdog                        
000164d2  __xdc__init                                                        
000164da  ti_sysbios_family_msp430_Hwi_switchFromBootStack__E                
000164da  ti_sysbios_hal_Hwi_HwiProxy_switchFromBootStack__E                 
000164e2  ti_sysbios_family_msp430_Timer_getPeriod__E                        
000164ea  xdc_runtime_Gate_enterSystem__E                                    
000164f2  xdc_runtime_Memory_HeapProxy_alloc__E                              
000164fa  xdc_runtime_Memory_HeapProxy_free__E                               
00016502  xdc_runtime_Memory_getMaxDefaultTypeAlign__E                       
0001650a  _register_lock                                                     
00016510  _register_unlock                                                   
00016516  __TI_decompress_rle24                                              
0001651c  ti_sysbios_knl_Idle_loop__E                                        
00016522  ti_sysbios_knl_Swi_startup__E                                      
00016528  ti_sysbios_knl_Task_getEnv__E                                      
0001652e  ti_sysbios_knl_Task_setEnv__E                                      
00016534  ti_uia_loggers_LoggerStopMode_getInstanceId__E                     
0001653a  ti_uia_loggers_LoggerStopMode_getMaxLength__E                      
00016540  xdc_runtime_Error_getSite__E                                       
00016546  _system_pre_init                                                   
0001654a  C$$EXIT                                                            
0001654a  abort                                                              
0001654a  xdc_runtime_System_abortStd__E                                     
0001654e  malloc                                                             
00016552  ti_sysbios_BIOS_RtsGateProxy_enter__E                              
00016556  ti_sysbios_BIOS_RtsGateProxy_leave__E                              
0001655a  ti_sysbios_family_msp430_TaskSupport_Module__startupDone__S        
0001655a  ti_sysbios_knl_Task_SupportProxy_Module__startupDone__S            
0001655e  ti_sysbios_gates_GateHwi_query__E                                  
0001655e  xdc_runtime_Main_Module_GateProxy_query__E                         
0001655e  xdc_runtime_System_Module_GateProxy_query__E                       
00016562  ti_sysbios_BIOS_RtsGateProxy_query__E                              
00016562  ti_sysbios_gates_GateMutex_query__E                                
00016562  ti_sysbios_heaps_HeapMem_Module_GateProxy_query__E                 
00016566  ti_sysbios_knl_Clock_TimerProxy_getMaxTicks__E                     
0001656a  ti_sysbios_knl_Clock_TimerProxy_getPeriod__E                       
0001656e  ti_sysbios_knl_Queue_destruct                                      
00016572  ti_sysbios_knl_Semaphore_destruct                                  
00016576  ti_sysbios_knl_Task_startup__E                                     
0001657a  ti_uia_loggers_LoggerStopMode_getContents__E                       
0001657e  ti_uia_loggers_LoggerStopMode_getFilterLevel__E                    
00016582  ti_uia_loggers_LoggerStopMode_getPriority__E                       
00016586  ti_uia_loggers_LoggerStopMode_getTransferType__E                   
0001658a  xdc_runtime_HeapStd_isBlocking__E                                  
0001658e  xdc_runtime_System_Module_GateProxy_enter__E                       
00016592  xdc_runtime_System_Module_GateProxy_leave__E                       
00016596  xdc_runtime_System_Module_startup__E                               
0001659a  _nop                                                               
0001659c  free                                                               
0001659e  ti_sysbios_BIOS_nullFunc__I                                        
000165a0  ti_sysbios_gates_GateHwi_Instance_init__E                          
000165a2  ti_uia_loggers_LoggerStopMode_setFilterLevel__E                    
000165a4  ti_uia_loggers_LoggerStopMode_setPriority__E                       
000165a6  xdc_runtime_Text_charTab__A                                        
0001848c  xdc_runtime_Text_nodeTab__A                                        
00018574  ti_uia_loggers_LoggerStopMode_Module__FXNS__C                      
000186b4  producerTask1                                                      
000186b8  consumerTask1                                                      
000186bc  ledSrvTask                                                         
000186c0  timeSharingClk                                                     
000186c4  fullSlots                                                          
000186c8  emptySlots                                                         
000186cc  mutex                                                              
000186d0  ledSrvSchedSem                                                     
000186d4  setLedEnvMutex                                                     
000186d8  consumerTask2                                                      
000186dc  producerTask2                                                      
0001870a  xdc_runtime_Startup_sfxnTab__A                                     
00018732  xdc_runtime_HeapStd_Module__FXNS__C                                
00018758  ti_sysbios_gates_GateHwi_Module__FXNS__C                           
0001877a  ti_sysbios_gates_GateMutex_Module__FXNS__C                         
0001879c  IntrinsicsSupport_maxbitTable                                      
000187bc  ti_uia_loggers_LoggerStopMode_Object__PARAMS__C                    
000187f8  ti_sysbios_knl_Semaphore_Object__PARAMS__C                         
00018814  ti_sysbios_gates_GateHwi_Object__DESC__C                           
0001882c  ti_sysbios_gates_GateMutex_Object__DESC__C                         
00018844  ti_sysbios_knl_Queue_Object__DESC__C                               
0001885c  ti_sysbios_knl_Semaphore_Object__DESC__C                           
00018874  ti_uia_loggers_LoggerStopMode_Object__DESC__C                      
0001888c  xdc_runtime_HeapStd_Object__DESC__C                                
000188a4  xdc_runtime_HeapStd_Object__PARAMS__C                              
000188bc  ti_sysbios_gates_GateHwi_Object__PARAMS__C                         
000188d0  ti_sysbios_gates_GateMutex_Object__PARAMS__C                       
000188e4  ti_sysbios_knl_Queue_Object__PARAMS__C                             
000188f8  xdc_runtime_Startup_sfxnRts__A                                     
00018926  ti_sysbios_knl_Idle_funcList__A                                    
0001892e  xdc_runtime_Startup_firstFxns__A                                   
0001893c  ti_sysbios_family_msp430_Hwi_hooks__C                              
00018942  ti_sysbios_knl_Idle_funcList__C                                    
00018948  xdc_runtime_Startup_firstFxns__C                                   
0001894e  xdc_runtime_Startup_lastFxns__C                                    
00018954  ti_sysbios_family_msp430_TimestampProvider_Module__diagsEnabled__C 
00018958  ti_sysbios_family_msp430_TimestampProvider_Module__diagsIncluded__C
0001895c  ti_sysbios_family_msp430_TimestampProvider_Module__diagsMask__C    
00018960  ti_sysbios_gates_GateMutex_A_badContext__C                         
00018964  ti_sysbios_gates_GateMutex_Module__diagsEnabled__C                 
00018968  ti_sysbios_gates_GateMutex_Module__diagsIncluded__C                
0001896c  ti_sysbios_gates_GateMutex_Module__diagsMask__C                    
00018970  ti_sysbios_hal_Hwi_E_stackOverflow__C                              
00018974  ti_sysbios_knl_Clock_LM_begin__C                                   
00018978  ti_sysbios_knl_Clock_LM_tick__C                                    
0001897c  ti_sysbios_knl_Clock_LW_delayed__C                                 
00018980  ti_sysbios_knl_Clock_Module__diagsEnabled__C                       
00018984  ti_sysbios_knl_Clock_Module__diagsIncluded__C                      
00018988  ti_sysbios_knl_Clock_Module__diagsMask__C                          
0001898c  ti_sysbios_knl_Clock_Module__loggerFxn1__C                         
00018990  ti_sysbios_knl_Clock_Module__loggerFxn2__C                         
00018994  ti_sysbios_knl_Clock_Module__loggerObj__C                          
00018998  ti_sysbios_knl_Semaphore_A_badContext__C                           
0001899c  ti_sysbios_knl_Semaphore_A_noEvents__C                             
000189a0  ti_sysbios_knl_Semaphore_A_overflow__C                             
000189a4  ti_sysbios_knl_Semaphore_A_pendTaskDisabled__C                     
000189a8  ti_sysbios_knl_Semaphore_LM_pend__C                                
000189ac  ti_sysbios_knl_Semaphore_LM_post__C                                
000189b0  ti_sysbios_knl_Semaphore_Module__diagsEnabled__C                   
000189b4  ti_sysbios_knl_Semaphore_Module__diagsIncluded__C                  
000189b8  ti_sysbios_knl_Semaphore_Module__diagsMask__C                      
000189bc  ti_sysbios_knl_Semaphore_Module__loggerFxn2__C                     
000189c0  ti_sysbios_knl_Semaphore_Module__loggerFxn4__C                     
000189c4  ti_sysbios_knl_Semaphore_Module__loggerObj__C                      
000189c8  ti_sysbios_knl_Swi_LD_end__C                                       
000189cc  ti_sysbios_knl_Swi_LM_begin__C                                     
000189d0  ti_sysbios_knl_Swi_LM_post__C                                      
000189d4  ti_sysbios_knl_Swi_Module__diagsEnabled__C                         
000189d8  ti_sysbios_knl_Swi_Module__diagsIncluded__C                        
000189dc  ti_sysbios_knl_Swi_Module__diagsMask__C                            
000189e0  ti_sysbios_knl_Swi_Module__loggerFxn1__C                           
000189e4  ti_sysbios_knl_Swi_Module__loggerFxn4__C                           
000189e8  ti_sysbios_knl_Swi_Module__loggerObj__C                            
000189ec  ti_sysbios_knl_Task_E_spOutOfBounds__C                             
000189f0  ti_sysbios_knl_Task_E_stackOverflow__C                             
000189f4  ti_sysbios_knl_Task_LD_block__C                                    
000189f8  ti_sysbios_knl_Task_LD_exit__C                                     
000189fc  ti_sysbios_knl_Task_LD_ready__C                                    
00018a00  ti_sysbios_knl_Task_LM_switch__C                                   
00018a04  ti_sysbios_knl_Task_LM_yield__C                                    
00018a08  ti_sysbios_knl_Task_Module__diagsEnabled__C                        
00018a0c  ti_sysbios_knl_Task_Module__diagsIncluded__C                       
00018a10  ti_sysbios_knl_Task_Module__diagsMask__C                           
00018a14  ti_sysbios_knl_Task_Module__loggerFxn2__C                          
00018a18  ti_sysbios_knl_Task_Module__loggerFxn4__C                          
00018a1c  ti_sysbios_knl_Task_Module__loggerObj__C                           
00018a20  ti_sysbios_knl_Task_allBlockedFunc__C                              
00018a24  ti_sysbios_utils_Load_LS_cpuLoad__C                                
00018a28  ti_sysbios_utils_Load_Module__diagsEnabled__C                      
00018a2c  ti_sysbios_utils_Load_Module__diagsIncluded__C                     
00018a30  ti_sysbios_utils_Load_Module__diagsMask__C                         
00018a34  ti_sysbios_utils_Load_Module__loggerFxn1__C                        
00018a38  ti_sysbios_utils_Load_Module__loggerObj__C                         
00018a3c  ti_sysbios_utils_Load_postUpdate__C                                
00018a40  ti_uia_loggers_LoggerStopMode_Module__diagsEnabled__C              
00018a44  ti_uia_loggers_LoggerStopMode_Module__diagsIncluded__C             
00018a48  ti_uia_loggers_LoggerStopMode_Module__diagsMask__C                 
00018a4c  ti_uia_runtime_ILoggerSnapshot_Interface__BASE__C                  
00018a50  ti_uia_runtime_IUIATransfer_Interface__BASE__C                     
00018a54  xdc_runtime_Assert_E_assertFailed__C                               
00018a58  xdc_runtime_Core_A_initializedParams__C                            
00018a5c  xdc_runtime_Core_Module__diagsEnabled__C                           
00018a60  xdc_runtime_Core_Module__diagsIncluded__C                          
00018a64  xdc_runtime_Core_Module__diagsMask__C                              
00018a68  xdc_runtime_Error_E_memory__C                                      
00018a6c  xdc_runtime_Error_Module__diagsEnabled__C                          
00018a70  xdc_runtime_Error_Module__diagsIncluded__C                         
00018a74  xdc_runtime_Error_Module__diagsMask__C                             
00018a78  xdc_runtime_Error_Module__loggerFxn8__C                            
00018a7c  xdc_runtime_Error_Module__loggerObj__C                             
00018a80  xdc_runtime_Error_policyFxn__C                                     
00018a84  xdc_runtime_Error_raiseHook__C                                     
00018a88  xdc_runtime_HeapStd_A_align__C                                     
00018a8c  xdc_runtime_HeapStd_A_invalidTotalFreeSize__C                      
00018a90  xdc_runtime_HeapStd_A_zeroSize__C                                  
00018a94  xdc_runtime_HeapStd_E_noRTSMemory__C                               
00018a98  xdc_runtime_HeapStd_Module__diagsEnabled__C                        
00018a9c  xdc_runtime_HeapStd_Module__diagsIncluded__C                       
00018aa0  xdc_runtime_HeapStd_Module__diagsMask__C                           
00018aa4  xdc_runtime_IFilterLogger_Interface__BASE__C                       
00018aa8  xdc_runtime_IGateProvider_Interface__BASE__C                       
00018aac  xdc_runtime_IHeap_Interface__BASE__C                               
00018ab0  xdc_runtime_ILogger_Interface__BASE__C                             
00018ab4  xdc_runtime_IModule_Interface__BASE__C                             
00018ab8  xdc_runtime_Log_L_error__C                                         
00018abc  xdc_runtime_Log_L_info__C                                          
00018ac0  xdc_runtime_Main_Module__diagsEnabled__C                           
00018ac4  xdc_runtime_Main_Module__diagsIncluded__C                          
00018ac8  xdc_runtime_Main_Module__diagsMask__C                              
00018acc  xdc_runtime_Main_Module__loggerFxn4__C                             
00018ad0  xdc_runtime_Main_Module__loggerFxn8__C                             
00018ad4  xdc_runtime_Main_Module__loggerObj__C                              
00018ad8  xdc_runtime_Memory_defaultHeapInstance__C                          
00018adc  xdc_runtime_Startup_execImpl__C                                    
00018ae0  xdc_runtime_Startup_sfxnRts__C                                     
00018ae4  xdc_runtime_Startup_sfxnTab__C                                     
00018ae8  xdc_runtime_SysMin_outputFunc__C                                   
00018aec  xdc_runtime_System_Module__gateObj__C                              
00018af0  xdc_runtime_System_abortFxn__C                                     
00018af4  xdc_runtime_System_exitFxn__C                                      
00018af8  xdc_runtime_System_extendFxn__C                                    
00018afc  xdc_runtime_Text_charTab__C                                        
00018b00  xdc_runtime_Text_nameEmpty__C                                      
00018b04  xdc_runtime_Text_nameStatic__C                                     
00018b08  xdc_runtime_Text_nameUnknown__C                                    
00018b0c  xdc_runtime_Text_nodeTab__C                                        
00018b10  xdc_runtime_Text_visitRopeFxn__C                                   
00018b14  ti_sysbios_family_msp430_Hwi_Object__count__C                      
00018b16  ti_sysbios_family_msp430_Timer_numTimerDevices__C                  
00018b18  ti_sysbios_family_msp430_Timer_startupNeeded__C                    
00018b1a  ti_sysbios_family_msp430_TimestampProvider_Module__id__C           
00018b1c  ti_sysbios_family_msp430_TimestampProvider_useClockTimer__C        
00018b1e  ti_sysbios_gates_GateMutex_Instance_State_sem__O                   
00018b20  ti_sysbios_gates_GateMutex_Module__id__C                           
00018b22  ti_sysbios_hal_Hwi_Module__id__C                                   
00018b24  ti_sysbios_heaps_HeapMem_Object__count__C                          
00018b26  ti_sysbios_knl_Clock_Module_State_clockQ__O                        
00018b28  ti_sysbios_knl_Clock_Module__id__C                                 
00018b2a  ti_sysbios_knl_Clock_Module__loggerDefined__C                      
00018b2c  ti_sysbios_knl_Semaphore_Instance_State_pendQ__O                   
00018b2e  ti_sysbios_knl_Semaphore_Module__id__C                             
00018b30  ti_sysbios_knl_Semaphore_Module__loggerDefined__C                  
00018b32  ti_sysbios_knl_Swi_Module__id__C                                   
00018b34  ti_sysbios_knl_Swi_Module__loggerDefined__C                        
00018b36  ti_sysbios_knl_Swi_Object__count__C                                
00018b38  ti_sysbios_knl_Task_Module_State_inactiveQ__O                      
00018b3a  ti_sysbios_knl_Task_Module__id__C                                  
00018b3c  ti_sysbios_knl_Task_Module__loggerDefined__C                       
00018b3e  ti_sysbios_knl_Task_Object__count__C                               
00018b40  ti_sysbios_knl_Task_initStackFlag__C                               
00018b42  ti_sysbios_knl_Task_numConstructedTasks__C                         
00018b44  ti_sysbios_utils_Load_Module__id__C                                
00018b46  ti_sysbios_utils_Load_Module__loggerDefined__C                     
00018b48  ti_sysbios_utils_Load_updateInIdle__C                              
00018b4a  ti_sysbios_utils_Load_windowInMs__C                                
00018b4c  ti_uia_loggers_LoggerStopMode_Module__id__C                        
00018b4e  ti_uia_loggers_LoggerStopMode_Object__count__C                     
00018b50  ti_uia_loggers_LoggerStopMode_isTimestampEnabled__C                
00018b52  xdc_runtime_Core_Module__id__C                                     
00018b54  xdc_runtime_Error_Module__loggerDefined__C                         
00018b56  xdc_runtime_Error_maxDepth__C                                      
00018b58  xdc_runtime_Error_policy__C                                        
00018b5a  xdc_runtime_HeapStd_Module__id__C                                  
00018b5c  xdc_runtime_Main_Module__id__C                                     
00018b5e  xdc_runtime_Main_Module__loggerDefined__C                          
00018b60  xdc_runtime_Memory_Module__id__C                                   
00018b62  xdc_runtime_Startup_maxPasses__C                                   
00018b64  xdc_runtime_SysMin_bufSize__C                                      
00018b66  xdc_runtime_SysMin_flushAtExit__C                                  
00018b68  xdc_runtime_System_maxAtexitHandlers__C                            
00018b6a  xdc_runtime_Text_charCnt__C                                        
00018b6c  xdc_runtime_Text_isLoaded__C                                       
00018b6e  xdc_runtime_Text_registryModsLastId__C                             
00018b70  xdc_runtime_Text_unnamedModsLastId__C                              
00018fba  __TI_Handler_Table_Base                                            
00018fc6  __TI_Handler_Table_Limit                                           
00018fd2  __TI_CINIT_Base                                                    
00018fea  __TI_CINIT_Limit                                                   
ffffffff  __binit__                                                          
ffffffff  __c_args__                                                         
ffffffff  binit                                                              
UNDEFED   __TI_INITARRAY_Base                                                
UNDEFED   __TI_INITARRAY_Limit                                               

[1444 symbols]
